
2 Colores.elf:     file format elf32-avr

Sections:
Idx Name          Size      VMA       LMA       File off  Algn
  0 .data         00000000  00800100  00800100  0000030e  2**0
                  ALLOC, LOAD, DATA
  1 .text         000000c2  00000000  00000000  000000b4  2**1
                  CONTENTS, ALLOC, LOAD, READONLY, CODE
  2 .bss          00000100  00800100  00800100  0000030e  2**0
                  ALLOC
  3 .comment      0000002f  00000000  00000000  0000030e  2**0
                  CONTENTS, READONLY
  4 .stack.descriptors.hdr 0000000e  00000000  00000000  0000033d  2**0
                  CONTENTS, READONLY
  5 .debug_aranges 00000060  00000000  00000000  0000034b  2**0
                  CONTENTS, READONLY, DEBUGGING
  6 .debug_info   00000b9c  00000000  00000000  000003ab  2**0
                  CONTENTS, READONLY, DEBUGGING
  7 .debug_abbrev 00000739  00000000  00000000  00000f47  2**0
                  CONTENTS, READONLY, DEBUGGING
  8 .debug_line   00000391  00000000  00000000  00001680  2**0
                  CONTENTS, READONLY, DEBUGGING
  9 .debug_frame  00000124  00000000  00000000  00001a14  2**2
                  CONTENTS, READONLY, DEBUGGING
 10 .debug_str    00000208  00000000  00000000  00001b38  2**0
                  CONTENTS, READONLY, DEBUGGING
 11 .debug_loc    00000346  00000000  00000000  00001d40  2**0
                  CONTENTS, READONLY, DEBUGGING
 12 .debug_ranges 00000050  00000000  00000000  00002086  2**0
                  CONTENTS, READONLY, DEBUGGING
 13 .text         00000004  0000024c  0000024c  00000300  2**1
                  CONTENTS, ALLOC, LOAD, READONLY, CODE
 14 .note.gnu.avr.deviceinfo 00000040  00000000  00000000  000020d8  2**2
                  CONTENTS, READONLY, DEBUGGING
 15 .text.usart_init 0000001c  00000208  00000208  000002bc  2**1
                  CONTENTS, ALLOC, LOAD, READONLY, CODE
 16 .text.usart_write_try 00000030  000001d8  000001d8  0000028c  2**1
                  CONTENTS, ALLOC, LOAD, READONLY, CODE
 17 .text.usart_write_str 00000040  00000198  00000198  0000024c  2**1
                  CONTENTS, ALLOC, LOAD, READONLY, CODE
 18 .progmemx.data 0000003b  000000c2  000000c2  00000176  2**0
                  CONTENTS, ALLOC, LOAD, READONLY, PROGMEMX
 19 .text.main    00000012  0000023a  0000023a  000002ee  2**1
                  CONTENTS, ALLOC, LOAD, READONLY, CODE
 20 .text.__vector_19 00000050  000000fe  000000fe  000001b2  2**1
                  CONTENTS, ALLOC, LOAD, READONLY, CODE
 21 .text.__vector_18 0000004a  0000014e  0000014e  00000202  2**1
                  CONTENTS, ALLOC, LOAD, READONLY, CODE
 22 .bss.rx_tail  00000001  00800200  00800200  0000030e  2**0
                  ALLOC
 23 .bss.rx_head  00000001  00800201  00800201  0000030e  2**0
                  ALLOC
 24 .bss.tx_tail  00000001  00800202  00800202  0000030e  2**0
                  ALLOC
 25 .bss.tx_head  00000001  00800203  00800203  0000030e  2**0
                  ALLOC
 26 .text.__dummy_fini 00000002  00000254  00000254  00000308  2**1
                  CONTENTS, ALLOC, LOAD, READONLY, CODE
 27 .text.__dummy_funcs_on_exit 00000002  00000256  00000256  0000030a  2**1
                  CONTENTS, ALLOC, LOAD, READONLY, CODE
 28 .text.__dummy_simulator_exit 00000002  00000258  00000258  0000030c  2**1
                  CONTENTS, ALLOC, LOAD, READONLY, CODE
 29 .text.exit    00000016  00000224  00000224  000002d8  2**1
                  CONTENTS, ALLOC, LOAD, READONLY, CODE
 30 .text._Exit   00000004  00000250  00000250  00000304  2**1
                  CONTENTS, ALLOC, LOAD, READONLY, CODE

Disassembly of section .text:

00000000 <__vectors>:
   0:	0c 94 37 00 	jmp	0x6e	; 0x6e <__ctors_end>
   4:	0c 94 26 01 	jmp	0x24c	; 0x24c <__bad_interrupt>
   8:	0c 94 26 01 	jmp	0x24c	; 0x24c <__bad_interrupt>
   c:	0c 94 26 01 	jmp	0x24c	; 0x24c <__bad_interrupt>
  10:	0c 94 26 01 	jmp	0x24c	; 0x24c <__bad_interrupt>
  14:	0c 94 26 01 	jmp	0x24c	; 0x24c <__bad_interrupt>
  18:	0c 94 26 01 	jmp	0x24c	; 0x24c <__bad_interrupt>
  1c:	0c 94 26 01 	jmp	0x24c	; 0x24c <__bad_interrupt>
  20:	0c 94 26 01 	jmp	0x24c	; 0x24c <__bad_interrupt>
  24:	0c 94 26 01 	jmp	0x24c	; 0x24c <__bad_interrupt>
  28:	0c 94 26 01 	jmp	0x24c	; 0x24c <__bad_interrupt>
  2c:	0c 94 26 01 	jmp	0x24c	; 0x24c <__bad_interrupt>
  30:	0c 94 26 01 	jmp	0x24c	; 0x24c <__bad_interrupt>
  34:	0c 94 26 01 	jmp	0x24c	; 0x24c <__bad_interrupt>
  38:	0c 94 26 01 	jmp	0x24c	; 0x24c <__bad_interrupt>
  3c:	0c 94 26 01 	jmp	0x24c	; 0x24c <__bad_interrupt>
  40:	0c 94 26 01 	jmp	0x24c	; 0x24c <__bad_interrupt>
  44:	0c 94 26 01 	jmp	0x24c	; 0x24c <__bad_interrupt>
  48:	0c 94 a7 00 	jmp	0x14e	; 0x14e <__vector_18>
  4c:	0c 94 7f 00 	jmp	0xfe	; 0xfe <__vector_19>
  50:	0c 94 26 01 	jmp	0x24c	; 0x24c <__bad_interrupt>
  54:	0c 94 26 01 	jmp	0x24c	; 0x24c <__bad_interrupt>
  58:	0c 94 26 01 	jmp	0x24c	; 0x24c <__bad_interrupt>
  5c:	0c 94 26 01 	jmp	0x24c	; 0x24c <__bad_interrupt>
  60:	0c 94 26 01 	jmp	0x24c	; 0x24c <__bad_interrupt>
  64:	0c 94 26 01 	jmp	0x24c	; 0x24c <__bad_interrupt>

00000068 <.dinit>:
  68:	01 00       	.word	0x0001	; ????
  6a:	02 04       	cpc	r0, r2
  6c:	80 00       	.word	0x0080	; ????

0000006e <__ctors_end>:
  6e:	11 24       	eor	r1, r1
  70:	1f be       	out	0x3f, r1	; 63
  72:	cf ef       	ldi	r28, 0xFF	; 255
  74:	d8 e0       	ldi	r29, 0x08	; 8
  76:	de bf       	out	0x3e, r29	; 62
  78:	cd bf       	out	0x3d, r28	; 61

0000007a <__do_copy_data>:
  7a:	e8 e6       	ldi	r30, 0x68	; 104
  7c:	f0 e0       	ldi	r31, 0x00	; 0
  7e:	40 e0       	ldi	r20, 0x00	; 0
  80:	17 c0       	rjmp	.+46     	; 0xb0 <__do_clear_bss+0x8>
  82:	b5 91       	lpm	r27, Z+
  84:	a5 91       	lpm	r26, Z+
  86:	35 91       	lpm	r19, Z+
  88:	25 91       	lpm	r18, Z+
  8a:	05 91       	lpm	r16, Z+
  8c:	07 fd       	sbrc	r16, 7
  8e:	0c c0       	rjmp	.+24     	; 0xa8 <__do_clear_bss>
  90:	95 91       	lpm	r25, Z+
  92:	85 91       	lpm	r24, Z+
  94:	ef 01       	movw	r28, r30
  96:	f9 2f       	mov	r31, r25
  98:	e8 2f       	mov	r30, r24
  9a:	05 90       	lpm	r0, Z+
  9c:	0d 92       	st	X+, r0
  9e:	a2 17       	cp	r26, r18
  a0:	b3 07       	cpc	r27, r19
  a2:	d9 f7       	brne	.-10     	; 0x9a <__do_copy_data+0x20>
  a4:	fe 01       	movw	r30, r28
  a6:	04 c0       	rjmp	.+8      	; 0xb0 <__do_clear_bss+0x8>

000000a8 <__do_clear_bss>:
  a8:	1d 92       	st	X+, r1
  aa:	a2 17       	cp	r26, r18
  ac:	b3 07       	cpc	r27, r19
  ae:	e1 f7       	brne	.-8      	; 0xa8 <__do_clear_bss>
  b0:	ed 36       	cpi	r30, 0x6D	; 109
  b2:	f4 07       	cpc	r31, r20
  b4:	31 f7       	brne	.-52     	; 0x82 <__do_copy_data+0x8>
  b6:	0e 94 1d 01 	call	0x23a	; 0x23a <main>
  ba:	0c 94 12 01 	jmp	0x224	; 0x224 <exit>

000000be <_exit>:
  be:	f8 94       	cli

000000c0 <__stop_program>:
  c0:	ff cf       	rjmp	.-2      	; 0xc0 <__stop_program>

Disassembly of section .text:

0000024c <__bad_interrupt>:
 24c:	0c 94 00 00 	jmp	0	; 0x0 <__TEXT_REGION_ORIGIN__>

Disassembly of section .text.usart_init:

00000208 <usart_init>:
		dest[count++] = c;
	}
	
	dest[count] = '\0';
	return count;
}
 208:	10 92 c5 00 	sts	0x00C5, r1	; 0x8000c5 <__TEXT_REGION_LENGTH__+0x7f80c5>
 20c:	87 e6       	ldi	r24, 0x67	; 103
 20e:	80 93 c4 00 	sts	0x00C4, r24	; 0x8000c4 <__TEXT_REGION_LENGTH__+0x7f80c4>
 212:	10 92 c0 00 	sts	0x00C0, r1	; 0x8000c0 <__TEXT_REGION_LENGTH__+0x7f80c0>
 216:	88 e9       	ldi	r24, 0x98	; 152
 218:	80 93 c1 00 	sts	0x00C1, r24	; 0x8000c1 <__TEXT_REGION_LENGTH__+0x7f80c1>
 21c:	86 e0       	ldi	r24, 0x06	; 6
 21e:	80 93 c2 00 	sts	0x00C2, r24	; 0x8000c2 <__TEXT_REGION_LENGTH__+0x7f80c2>
 222:	08 95       	ret

Disassembly of section .text.usart_write_try:

000001d8 <usart_write_try>:
 1d8:	e0 91 03 02 	lds	r30, 0x0203	; 0x800203 <tx_head>
 1dc:	91 e0       	ldi	r25, 0x01	; 1
 1de:	9e 0f       	add	r25, r30
 1e0:	9f 77       	andi	r25, 0x7F	; 127
 1e2:	20 91 02 02 	lds	r18, 0x0202	; 0x800202 <tx_tail>
 1e6:	92 17       	cp	r25, r18
 1e8:	69 f0       	breq	.+26     	; 0x204 <usart_write_try+0x2c>
 1ea:	f0 e0       	ldi	r31, 0x00	; 0
 1ec:	e0 58       	subi	r30, 0x80	; 128
 1ee:	fe 4f       	sbci	r31, 0xFE	; 254
 1f0:	80 83       	st	Z, r24
 1f2:	90 93 03 02 	sts	0x0203, r25	; 0x800203 <tx_head>
 1f6:	e1 ec       	ldi	r30, 0xC1	; 193
 1f8:	f0 e0       	ldi	r31, 0x00	; 0
 1fa:	80 81       	ld	r24, Z
 1fc:	80 62       	ori	r24, 0x20	; 32
 1fe:	80 83       	st	Z, r24
 200:	81 e0       	ldi	r24, 0x01	; 1
 202:	08 95       	ret
 204:	80 e0       	ldi	r24, 0x00	; 0
 206:	08 95       	ret

Disassembly of section .text.usart_write_str:

00000198 <usart_write_str>:
 198:	cf 92       	push	r12
 19a:	df 92       	push	r13
 19c:	ef 92       	push	r14
 19e:	cf 93       	push	r28
 1a0:	df 93       	push	r29
 1a2:	6b 01       	movw	r12, r22
 1a4:	e8 2e       	mov	r14, r24
 1a6:	c0 e0       	ldi	r28, 0x00	; 0
 1a8:	d0 e0       	ldi	r29, 0x00	; 0
 1aa:	01 c0       	rjmp	.+2      	; 0x1ae <usart_write_str+0x16>
 1ac:	21 96       	adiw	r28, 0x01	; 1
 1ae:	f6 01       	movw	r30, r12
 1b0:	84 91       	lpm	r24, Z
 1b2:	e7 fc       	sbrc	r14, 7
 1b4:	80 81       	ld	r24, Z
 1b6:	88 23       	and	r24, r24
 1b8:	41 f0       	breq	.+16     	; 0x1ca <usart_write_str+0x32>
 1ba:	9f ef       	ldi	r25, 0xFF	; 255
 1bc:	c9 1a       	sub	r12, r25
 1be:	d9 0a       	sbc	r13, r25
 1c0:	e9 0a       	sbc	r14, r25
 1c2:	0e 94 ec 00 	call	0x1d8	; 0x1d8 <usart_write_try>
 1c6:	81 11       	cpse	r24, r1
 1c8:	f1 cf       	rjmp	.-30     	; 0x1ac <usart_write_str+0x14>
 1ca:	ce 01       	movw	r24, r28
 1cc:	df 91       	pop	r29
 1ce:	cf 91       	pop	r28
 1d0:	ef 90       	pop	r14
 1d2:	df 90       	pop	r13
 1d4:	cf 90       	pop	r12
 1d6:	08 95       	ret

Disassembly of section .text.main:

0000023a <main>:
// MAIN
// ------------------------------------------------------------------


int main(void) {
	usart_init();
 23a:	0e 94 04 01 	call	0x208	; 0x208 <usart_init>
	sei();
 23e:	78 94       	sei
	
	usart_write_str("Hello");
 240:	62 ec       	ldi	r22, 0xC2	; 194
 242:	70 e0       	ldi	r23, 0x00	; 0
 244:	80 e0       	ldi	r24, 0x00	; 0
 246:	0e 94 cc 00 	call	0x198	; 0x198 <usart_write_str>
 24a:	ff cf       	rjmp	.-2      	; 0x24a <main+0x10>

Disassembly of section .text.__vector_19:

000000fe <__vector_19>:
		dest[count++] = c;
	}
	
	dest[count] = '\0';
	return count;
}
  fe:	1f 92       	push	r1
 100:	0f 92       	push	r0
 102:	0f b6       	in	r0, 0x3f	; 63
 104:	0f 92       	push	r0
 106:	11 24       	eor	r1, r1
 108:	8f 93       	push	r24
 10a:	ef 93       	push	r30
 10c:	ff 93       	push	r31
 10e:	80 91 03 02 	lds	r24, 0x0203	; 0x800203 <tx_head>
 112:	e0 91 02 02 	lds	r30, 0x0202	; 0x800202 <tx_tail>
 116:	8e 13       	cpse	r24, r30
 118:	06 c0       	rjmp	.+12     	; 0x126 <__vector_19+0x28>
 11a:	e1 ec       	ldi	r30, 0xC1	; 193
 11c:	f0 e0       	ldi	r31, 0x00	; 0
 11e:	80 81       	ld	r24, Z
 120:	8f 7d       	andi	r24, 0xDF	; 223
 122:	80 83       	st	Z, r24
 124:	0c c0       	rjmp	.+24     	; 0x13e <__vector_19+0x40>
 126:	f0 e0       	ldi	r31, 0x00	; 0
 128:	e0 58       	subi	r30, 0x80	; 128
 12a:	fe 4f       	sbci	r31, 0xFE	; 254
 12c:	80 81       	ld	r24, Z
 12e:	80 93 c6 00 	sts	0x00C6, r24	; 0x8000c6 <__TEXT_REGION_LENGTH__+0x7f80c6>
 132:	80 91 02 02 	lds	r24, 0x0202	; 0x800202 <tx_tail>
 136:	8f 5f       	subi	r24, 0xFF	; 255
 138:	8f 77       	andi	r24, 0x7F	; 127
 13a:	80 93 02 02 	sts	0x0202, r24	; 0x800202 <tx_tail>
 13e:	ff 91       	pop	r31
 140:	ef 91       	pop	r30
 142:	8f 91       	pop	r24
 144:	0f 90       	pop	r0
 146:	0f be       	out	0x3f, r0	; 63
 148:	0f 90       	pop	r0
 14a:	1f 90       	pop	r1
 14c:	18 95       	reti

Disassembly of section .text.__vector_18:

0000014e <__vector_18>:
 14e:	1f 92       	push	r1
 150:	0f 92       	push	r0
 152:	0f b6       	in	r0, 0x3f	; 63
 154:	0f 92       	push	r0
 156:	11 24       	eor	r1, r1
 158:	2f 93       	push	r18
 15a:	8f 93       	push	r24
 15c:	9f 93       	push	r25
 15e:	ef 93       	push	r30
 160:	ff 93       	push	r31
 162:	20 91 c6 00 	lds	r18, 0x00C6	; 0x8000c6 <__TEXT_REGION_LENGTH__+0x7f80c6>
 166:	e0 91 01 02 	lds	r30, 0x0201	; 0x800201 <rx_head>
 16a:	81 e0       	ldi	r24, 0x01	; 1
 16c:	8e 0f       	add	r24, r30
 16e:	8f 77       	andi	r24, 0x7F	; 127
 170:	90 91 00 02 	lds	r25, 0x0200	; 0x800200 <_end>
 174:	89 17       	cp	r24, r25
 176:	31 f0       	breq	.+12     	; 0x184 <__vector_18+0x36>
 178:	f0 e0       	ldi	r31, 0x00	; 0
 17a:	e0 50       	subi	r30, 0x00	; 0
 17c:	ff 4f       	sbci	r31, 0xFF	; 255
 17e:	20 83       	st	Z, r18
 180:	80 93 01 02 	sts	0x0201, r24	; 0x800201 <rx_head>
 184:	ff 91       	pop	r31
 186:	ef 91       	pop	r30
 188:	9f 91       	pop	r25
 18a:	8f 91       	pop	r24
 18c:	2f 91       	pop	r18
 18e:	0f 90       	pop	r0
 190:	0f be       	out	0x3f, r0	; 63
 192:	0f 90       	pop	r0
 194:	1f 90       	pop	r1
 196:	18 95       	reti

Disassembly of section .text.__dummy_fini:

00000254 <_fini>:
 254:	08 95       	ret

Disassembly of section .text.__dummy_funcs_on_exit:

00000256 <__funcs_on_exit>:
 256:	08 95       	ret

Disassembly of section .text.__dummy_simulator_exit:

00000258 <__simulator_exit>:
 258:	08 95       	ret

Disassembly of section .text.exit:

00000224 <exit>:
 224:	ec 01       	movw	r28, r24
 226:	0e 94 2b 01 	call	0x256	; 0x256 <__funcs_on_exit>
 22a:	0e 94 2a 01 	call	0x254	; 0x254 <_fini>
 22e:	ce 01       	movw	r24, r28
 230:	0e 94 2c 01 	call	0x258	; 0x258 <__simulator_exit>
 234:	ce 01       	movw	r24, r28
 236:	0e 94 28 01 	call	0x250	; 0x250 <_Exit>

Disassembly of section .text._Exit:

00000250 <_Exit>:
 250:	0e 94 5f 00 	call	0xbe	; 0xbe <_exit>
