
1 Plotter.elf:     file format elf32-avr

Sections:
Idx Name          Size      VMA       LMA       File off  Algn
  0 .data         00000000  00800100  00800100  00002d70  2**0
                  ALLOC, LOAD, DATA
  1 .text         000000f2  00000000  00000000  00000094  2**1
                  CONTENTS, ALLOC, LOAD, READONLY, CODE
  2 .bss          00000100  00800100  00800100  00002d70  2**0
                  ALLOC
  3 .comment      0000002f  00000000  00000000  00002d70  2**0
                  CONTENTS, READONLY
  4 .stack.descriptors.hdr 00000188  00000000  00000000  00002d9f  2**0
                  CONTENTS, READONLY
  5 .debug_aranges 000000f0  00000000  00000000  00002f27  2**0
                  CONTENTS, READONLY, DEBUGGING
  6 .debug_info   00001797  00000000  00000000  00003017  2**0
                  CONTENTS, READONLY, DEBUGGING
  7 .debug_abbrev 0000088f  00000000  00000000  000047ae  2**0
                  CONTENTS, READONLY, DEBUGGING
  8 .debug_line   0000097f  00000000  00000000  0000503d  2**0
                  CONTENTS, READONLY, DEBUGGING
  9 .debug_frame  000002f4  00000000  00000000  000059bc  2**2
                  CONTENTS, READONLY, DEBUGGING
 10 .debug_str    00000259  00000000  00000000  00005cb0  2**0
                  CONTENTS, READONLY, DEBUGGING
 11 .debug_loc    00000aa9  00000000  00000000  00005f09  2**0
                  CONTENTS, READONLY, DEBUGGING
 12 .debug_ranges 000000e0  00000000  00000000  000069b2  2**0
                  CONTENTS, READONLY, DEBUGGING
 13 .text         00000004  00002cce  00002cce  00002d62  2**1
                  CONTENTS, ALLOC, LOAD, READONLY, CODE
 14 .note.gnu.avr.deviceinfo 00000040  00000000  00000000  00006a94  2**2
                  CONTENTS, READONLY, DEBUGGING
 15 .text.delay_ms_timer1 00000044  00002934  00002934  000029c8  2**1
                  CONTENTS, ALLOC, LOAD, READONLY, CODE
 16 .text.precompute_cuarto_circulo_arrays 0000015a  00001dce  00001dce  00001e62  2**1
                  CONTENTS, ALLOC, LOAD, READONLY, CODE
 17 .text.apagar  0000000a  00002c2e  00002c2e  00002cc2  2**1
                  CONTENTS, ALLOC, LOAD, READONLY, CODE
 18 .text.apagar2 00000008  00002cb0  00002cb0  00002d44  2**1
                  CONTENTS, ALLOC, LOAD, READONLY, CODE
 19 .text.Subir_s 0000000a  00002c38  00002c38  00002ccc  2**1
                  CONTENTS, ALLOC, LOAD, READONLY, CODE
 20 .text.Bajar   0000000a  00002c42  00002c42  00002cd6  2**1
                  CONTENTS, ALLOC, LOAD, READONLY, CODE
 21 .text.Subir   0000000a  00002c4c  00002c4c  00002ce0  2**1
                  CONTENTS, ALLOC, LOAD, READONLY, CODE
 22 .text.Izquierda 0000000a  00002c56  00002c56  00002cea  2**1
                  CONTENTS, ALLOC, LOAD, READONLY, CODE
 23 .text.Derecha 0000000a  00002c60  00002c60  00002cf4  2**1
                  CONTENTS, ALLOC, LOAD, READONLY, CODE
 24 .text.Hacer_circulo 0000026e  00001690  00001690  00001724  2**1
                  CONTENTS, ALLOC, LOAD, READONLY, CODE
 25 .text.AbajoIzquierda 0000000a  00002c6a  00002c6a  00002cfe  2**1
                  CONTENTS, ALLOC, LOAD, READONLY, CODE
 26 .text.AbajoDerecha 0000000a  00002c74  00002c74  00002d08  2**1
                  CONTENTS, ALLOC, LOAD, READONLY, CODE
 27 .text.centrar 00000024  00002b08  00002b08  00002b9c  2**1
                  CONTENTS, ALLOC, LOAD, READONLY, CODE
 28 .text.ArribaIzquierda 0000000a  00002c7e  00002c7e  00002d12  2**1
                  CONTENTS, ALLOC, LOAD, READONLY, CODE
 29 .text.ArribaDerecha 0000000a  00002c88  00002c88  00002d1c  2**1
                  CONTENTS, ALLOC, LOAD, READONLY, CODE
 30 .text.peurbas 00000058  0000284e  0000284e  000028e2  2**1
                  CONTENTS, ALLOC, LOAD, READONLY, CODE
 31 .text.__vector_13 0000002e  00002a5e  00002a5e  00002af2  2**1
                  CONTENTS, ALLOC, LOAD, READONLY, CODE
 32 .text.serialWrite 0000007e  00002620  00002620  000026b4  2**1
                  CONTENTS, ALLOC, LOAD, READONLY, CODE
 33 .text.__vector_19 00000068  00002788  00002788  0000281c  2**1
                  CONTENTS, ALLOC, LOAD, READONLY, CODE
 34 .text.Chardos 00000034  00002a2a  00002a2a  00002abe  2**1
                  CONTENTS, ALLOC, LOAD, READONLY, CODE
 35 .progmemx.data 00000032  000001fa  000001fa  0000028e  2**0
                  CONTENTS, ALLOC, LOAD, READONLY, PROGMEMX
 36 .text.main    00000070  00002718  00002718  000027ac  2**1
                  CONTENTS, ALLOC, LOAD, READONLY, CODE
 37 .text.__vector_18 00000046  000028ee  000028ee  00002982  2**1
                  CONTENTS, ALLOC, LOAD, READONLY, CODE
 38 .bss.CONTADOR 00000001  00800200  00800200  00002d70  2**0
                  ALLOC
 39 .bss.rxWritePos 00000001  00800201  00800201  00002d70  2**0
                  ALLOC
 40 .bss.rxReadPos 00000001  00800202  00800202  00002d70  2**0
                  ALLOC
 41 .bss.serialWritePos 00000001  00800203  00800203  00002d70  2**0
                  ALLOC
 42 .bss.serialReadPos 00000001  00800204  00800204  00002d70  2**0
                  ALLOC
 43 .text         0000000a  00002c92  00002c92  00002d26  2**1
                  CONTENTS, ALLOC, LOAD, READONLY, CODE
 44 .text         00000008  00002cb8  00002cb8  00002d4c  2**1
                  CONTENTS, ALLOC, LOAD, READONLY, CODE
 45 .text         000000de  0000223a  0000223a  000022ce  2**1
                  CONTENTS, ALLOC, LOAD, READONLY, CODE
 46 .text         0000007a  0000269e  0000269e  00002732  2**1
                  CONTENTS, ALLOC, LOAD, READONLY, CODE
 47 .text         00000048  000028a6  000028a6  0000293a  2**1
                  CONTENTS, ALLOC, LOAD, READONLY, CODE
 48 .text         0000000c  00002c16  00002c16  00002caa  2**1
                  CONTENTS, ALLOC, LOAD, READONLY, CODE
 49 .text         00000006  00002cc8  00002cc8  00002d5c  2**1
                  CONTENTS, ALLOC, LOAD, READONLY, CODE
 50 .text         0000000e  00002bd0  00002bd0  00002c64  2**1
                  CONTENTS, ALLOC, LOAD, READONLY, CODE
 51 .text         0000000e  00002bde  00002bde  00002c72  2**1
                  CONTENTS, ALLOC, LOAD, READONLY, CODE
 52 .text         00000022  00002b2c  00002b2c  00002bc0  2**1
                  CONTENTS, ALLOC, LOAD, READONLY, CODE
 53 .text         00000044  00002978  00002978  00002a0c  2**1
                  CONTENTS, ALLOC, LOAD, READONLY, CODE
 54 .text         0000000e  00002bec  00002bec  00002c80  2**1
                  CONTENTS, ALLOC, LOAD, READONLY, CODE
 55 .text         00000008  00002cc0  00002cc0  00002d54  2**1
                  CONTENTS, ALLOC, LOAD, READONLY, CODE
 56 .text         000000d4  00002318  00002318  000023ac  2**1
                  CONTENTS, ALLOC, LOAD, READONLY, CODE
 57 .text.cosf    0000016a  00001c64  00001c64  00001cf8  2**1
                  CONTENTS, ALLOC, LOAD, READONLY, CODE
 58 .text.lrintf  0000000a  00002c9c  00002c9c  00002d30  2**1
                  CONTENTS, ALLOC, LOAD, READONLY, CODE
 59 .text.rintf   000000b4  000024ba  000024ba  0000254e  2**1
                  CONTENTS, ALLOC, LOAD, READONLY, CODE
 60 .text.sinf    000001ca  000018fe  000018fe  00001992  2**1
                  CONTENTS, ALLOC, LOAD, READONLY, CODE
 61 .text.__cosdf 000000ee  0000214c  0000214c  000021e0  2**1
                  CONTENTS, ALLOC, LOAD, READONLY, CODE
 62 .text.__rem_pio2f 0000019c  00001ac8  00001ac8  00001b5c  2**1
                  CONTENTS, ALLOC, LOAD, READONLY, CODE
 63 .text.__sindf 000000f2  0000205a  0000205a  000020ee  2**1
                  CONTENTS, ALLOC, LOAD, READONLY, CODE
 64 .text         0000000e  00002bfa  00002bfa  00002c8e  2**1
                  CONTENTS, ALLOC, LOAD, READONLY, CODE
 65 .text         000000ce  000023ec  000023ec  00002480  2**1
                  CONTENTS, ALLOC, LOAD, READONLY, CODE
 66 .text         0000000e  00002c08  00002c08  00002c9c  2**1
                  CONTENTS, ALLOC, LOAD, READONLY, CODE
 67 .text         0000005e  000027f0  000027f0  00002884  2**1
                  CONTENTS, ALLOC, LOAD, READONLY, CODE
 68 .text.__rem_pio2_large 0000143c  00000254  00000254  000002e8  2**1
                  CONTENTS, ALLOC, LOAD, READONLY, CODE
 69 .progmemx.data.PIo2 00000020  0000022c  0000022c  000002c0  2**0
                  CONTENTS, ALLOC, LOAD, READONLY, PROGMEMX
 70 .progmemx.data.ipio2 00000108  000000f2  000000f2  00000186  2**0
                  CONTENTS, ALLOC, LOAD, READONLY, PROGMEMX
 71 .progmemx.data.init_jk 00000008  0000024c  0000024c  000002e0  2**0
                  CONTENTS, ALLOC, LOAD, READONLY, PROGMEMX
 72 .text         0000000a  00002ca6  00002ca6  00002d3a  2**1
                  CONTENTS, ALLOC, LOAD, READONLY, CODE
 73 .text.floorf  00000132  00001f28  00001f28  00001fbc  2**1
                  CONTENTS, ALLOC, LOAD, READONLY, CODE
 74 .text.scalbnf 000000b2  0000256e  0000256e  00002602  2**1
                  CONTENTS, ALLOC, LOAD, READONLY, CODE
 75 .text.libgcc.div 00000028  00002ab8  00002ab8  00002b4c  2**1
                  CONTENTS, ALLOC, LOAD, READONLY, CODE
 76 .text.libgcc  0000000c  00002c22  00002c22  00002cb6  2**1
                  CONTENTS, ALLOC, LOAD, READONLY, CODE
 77 .text.libgcc.mul 00000010  00002bb0  00002bb0  00002c44  2**1
                  CONTENTS, ALLOC, LOAD, READONLY, CODE
 78 .text.libgcc.prologue 00000038  000029bc  000029bc  00002a50  2**1
                  CONTENTS, ALLOC, LOAD, READONLY, CODE
 79 .text.libgcc.prologue 00000036  000029f4  000029f4  00002a88  2**1
                  CONTENTS, ALLOC, LOAD, READONLY, CODE
 80 .text.libgcc  00000010  00002bc0  00002bc0  00002c54  2**1
                  CONTENTS, ALLOC, LOAD, READONLY, CODE
 81 .text.libgcc  00000018  00002b6c  00002b6c  00002c00  2**1
                  CONTENTS, ALLOC, LOAD, READONLY, CODE
 82 .text.libgcc.div 00000028  00002ae0  00002ae0  00002b74  2**1
                  CONTENTS, ALLOC, LOAD, READONLY, CODE
 83 .text.libgcc.mul 00000016  00002b84  00002b84  00002c18  2**1
                  CONTENTS, ALLOC, LOAD, READONLY, CODE
 84 .text.libgcc.mul 0000001e  00002b4e  00002b4e  00002be2  2**1
                  CONTENTS, ALLOC, LOAD, READONLY, CODE
 85 .text.__dummy_fini 00000002  00002cd6  00002cd6  00002d6a  2**1
                  CONTENTS, ALLOC, LOAD, READONLY, CODE
 86 .text.__dummy_funcs_on_exit 00000002  00002cd8  00002cd8  00002d6c  2**1
                  CONTENTS, ALLOC, LOAD, READONLY, CODE
 87 .text.__dummy_simulator_exit 00000002  00002cda  00002cda  00002d6e  2**1
                  CONTENTS, ALLOC, LOAD, READONLY, CODE
 88 .text.exit    00000016  00002b9a  00002b9a  00002c2e  2**1
                  CONTENTS, ALLOC, LOAD, READONLY, CODE
 89 .text.strlen  0000002c  00002a8c  00002a8c  00002b20  2**1
                  CONTENTS, ALLOC, LOAD, READONLY, CODE
 90 .text._Exit   00000004  00002cd2  00002cd2  00002d66  2**1
                  CONTENTS, ALLOC, LOAD, READONLY, CODE

Disassembly of section .text:

00000000 <__vectors>:
   0:	0c 94 4f 00 	jmp	0x9e	; 0x9e <__ctors_end>
   4:	0c 94 67 16 	jmp	0x2cce	; 0x2cce <__bad_interrupt>
   8:	0c 94 67 16 	jmp	0x2cce	; 0x2cce <__bad_interrupt>
   c:	0c 94 67 16 	jmp	0x2cce	; 0x2cce <__bad_interrupt>
  10:	0c 94 67 16 	jmp	0x2cce	; 0x2cce <__bad_interrupt>
  14:	0c 94 67 16 	jmp	0x2cce	; 0x2cce <__bad_interrupt>
  18:	0c 94 67 16 	jmp	0x2cce	; 0x2cce <__bad_interrupt>
  1c:	0c 94 67 16 	jmp	0x2cce	; 0x2cce <__bad_interrupt>
  20:	0c 94 67 16 	jmp	0x2cce	; 0x2cce <__bad_interrupt>
  24:	0c 94 67 16 	jmp	0x2cce	; 0x2cce <__bad_interrupt>
  28:	0c 94 67 16 	jmp	0x2cce	; 0x2cce <__bad_interrupt>
  2c:	0c 94 67 16 	jmp	0x2cce	; 0x2cce <__bad_interrupt>
  30:	0c 94 67 16 	jmp	0x2cce	; 0x2cce <__bad_interrupt>
  34:	0c 94 2f 15 	jmp	0x2a5e	; 0x2a5e <__vector_13>
  38:	0c 94 67 16 	jmp	0x2cce	; 0x2cce <__bad_interrupt>
  3c:	0c 94 67 16 	jmp	0x2cce	; 0x2cce <__bad_interrupt>
  40:	0c 94 67 16 	jmp	0x2cce	; 0x2cce <__bad_interrupt>
  44:	0c 94 67 16 	jmp	0x2cce	; 0x2cce <__bad_interrupt>
  48:	0c 94 77 14 	jmp	0x28ee	; 0x28ee <__vector_18>
  4c:	0c 94 c4 13 	jmp	0x2788	; 0x2788 <__vector_19>
  50:	0c 94 67 16 	jmp	0x2cce	; 0x2cce <__bad_interrupt>
  54:	0c 94 67 16 	jmp	0x2cce	; 0x2cce <__bad_interrupt>
  58:	0c 94 67 16 	jmp	0x2cce	; 0x2cce <__bad_interrupt>
  5c:	0c 94 67 16 	jmp	0x2cce	; 0x2cce <__bad_interrupt>
  60:	0c 94 67 16 	jmp	0x2cce	; 0x2cce <__bad_interrupt>
  64:	0c 94 67 16 	jmp	0x2cce	; 0x2cce <__bad_interrupt>
  68:	47 14       	cp	r4, r7
  6a:	3b 14       	cp	r3, r11
  6c:	4d 14       	cp	r4, r13
  6e:	52 14       	cp	r5, r2
  70:	52 14       	cp	r5, r2
  72:	52 14       	cp	r5, r2
  74:	52 14       	cp	r5, r2
  76:	50 14       	cp	r5, r0
  78:	52 14       	cp	r5, r2
  7a:	3e 14       	cp	r3, r14
  7c:	52 14       	cp	r5, r2
  7e:	52 14       	cp	r5, r2
  80:	52 14       	cp	r5, r2
  82:	52 14       	cp	r5, r2
  84:	4a 14       	cp	r4, r10
  86:	41 14       	cp	r4, r1
  88:	35 14       	cp	r3, r5
  8a:	52 14       	cp	r5, r2
  8c:	38 14       	cp	r3, r8
  8e:	52 14       	cp	r5, r2
  90:	52 14       	cp	r5, r2
  92:	32 14       	cp	r3, r2
  94:	52 14       	cp	r5, r2
  96:	44 14       	cp	r4, r4

00000098 <.dinit>:
  98:	01 00       	.word	0x0001	; ????
  9a:	02 05       	cpc	r16, r2
  9c:	80 00       	.word	0x0080	; ????

0000009e <__ctors_end>:
  9e:	11 24       	eor	r1, r1
  a0:	1f be       	out	0x3f, r1	; 63
  a2:	cf ef       	ldi	r28, 0xFF	; 255
  a4:	d8 e0       	ldi	r29, 0x08	; 8
  a6:	de bf       	out	0x3e, r29	; 62
  a8:	cd bf       	out	0x3d, r28	; 61

000000aa <__do_copy_data>:
  aa:	e8 e9       	ldi	r30, 0x98	; 152
  ac:	f0 e0       	ldi	r31, 0x00	; 0
  ae:	40 e0       	ldi	r20, 0x00	; 0
  b0:	17 c0       	rjmp	.+46     	; 0xe0 <__do_clear_bss+0x8>
  b2:	b5 91       	lpm	r27, Z+
  b4:	a5 91       	lpm	r26, Z+
  b6:	35 91       	lpm	r19, Z+
  b8:	25 91       	lpm	r18, Z+
  ba:	05 91       	lpm	r16, Z+
  bc:	07 fd       	sbrc	r16, 7
  be:	0c c0       	rjmp	.+24     	; 0xd8 <__do_clear_bss>
  c0:	95 91       	lpm	r25, Z+
  c2:	85 91       	lpm	r24, Z+
  c4:	ef 01       	movw	r28, r30
  c6:	f9 2f       	mov	r31, r25
  c8:	e8 2f       	mov	r30, r24
  ca:	05 90       	lpm	r0, Z+
  cc:	0d 92       	st	X+, r0
  ce:	a2 17       	cp	r26, r18
  d0:	b3 07       	cpc	r27, r19
  d2:	d9 f7       	brne	.-10     	; 0xca <__do_copy_data+0x20>
  d4:	fe 01       	movw	r30, r28
  d6:	04 c0       	rjmp	.+8      	; 0xe0 <__do_clear_bss+0x8>

000000d8 <__do_clear_bss>:
  d8:	1d 92       	st	X+, r1
  da:	a2 17       	cp	r26, r18
  dc:	b3 07       	cpc	r27, r19
  de:	e1 f7       	brne	.-8      	; 0xd8 <__do_clear_bss>
  e0:	ed 39       	cpi	r30, 0x9D	; 157
  e2:	f4 07       	cpc	r31, r20
  e4:	31 f7       	brne	.-52     	; 0xb2 <__do_copy_data+0x8>
  e6:	0e 94 8c 13 	call	0x2718	; 0x2718 <main>
  ea:	0c 94 cd 15 	jmp	0x2b9a	; 0x2b9a <exit>

000000ee <_exit>:
  ee:	f8 94       	cli

000000f0 <__stop_program>:
  f0:	ff cf       	rjmp	.-2      	; 0xf0 <__stop_program>

Disassembly of section .text:

00002cce <__bad_interrupt>:
    2cce:	0c 94 00 00 	jmp	0	; 0x0 <__TEXT_REGION_ORIGIN__>

Disassembly of section .text.delay_ms_timer1:

00002934 <delay_ms_timer1>:
	#else
		//round up by default
		__ticks_dc = (uint32_t)(ceil(fabs(__tmp)));
	#endif

	__builtin_avr_delay_cycles(__ticks_dc);
    2934:	cf 92       	push	r12
    2936:	df 92       	push	r13
    2938:	ef 92       	push	r14
    293a:	ff 92       	push	r15
    293c:	cf 93       	push	r28
    293e:	6b 01       	movw	r12, r22
    2940:	7c 01       	movw	r14, r24
    2942:	c0 e0       	ldi	r28, 0x00	; 0
    2944:	07 c0       	rjmp	.+14     	; 0x2954 <delay_ms_timer1+0x20>
    2946:	83 ec       	ldi	r24, 0xC3	; 195
    2948:	99 e0       	ldi	r25, 0x09	; 9
    294a:	01 97       	sbiw	r24, 0x01	; 1
    294c:	f1 f7       	brne	.-4      	; 0x294a <delay_ms_timer1+0x16>
    294e:	00 c0       	rjmp	.+0      	; 0x2950 <delay_ms_timer1+0x1c>
    2950:	00 00       	nop
    2952:	cf 5f       	subi	r28, 0xFF	; 255
    2954:	6c 2f       	mov	r22, r28
    2956:	70 e0       	ldi	r23, 0x00	; 0
    2958:	80 e0       	ldi	r24, 0x00	; 0
    295a:	90 e0       	ldi	r25, 0x00	; 0
    295c:	0e 94 51 13 	call	0x26a2	; 0x26a2 <__floatsisf>
    2960:	a7 01       	movw	r20, r14
    2962:	96 01       	movw	r18, r12
    2964:	0e 94 49 16 	call	0x2c92	; 0x2c92 <__cmpsf2>
    2968:	88 23       	and	r24, r24
    296a:	6c f3       	brlt	.-38     	; 0x2946 <delay_ms_timer1+0x12>
    296c:	cf 91       	pop	r28
    296e:	ff 90       	pop	r15
    2970:	ef 90       	pop	r14
    2972:	df 90       	pop	r13
    2974:	cf 90       	pop	r12
    2976:	08 95       	ret

Disassembly of section .text.precompute_cuarto_circulo_arrays:

00001dce <precompute_cuarto_circulo_arrays>:
    1dce:	2f 92       	push	r2
    1dd0:	3f 92       	push	r3
    1dd2:	4f 92       	push	r4
    1dd4:	5f 92       	push	r5
    1dd6:	6f 92       	push	r6
    1dd8:	7f 92       	push	r7
    1dda:	8f 92       	push	r8
    1ddc:	9f 92       	push	r9
    1dde:	af 92       	push	r10
    1de0:	bf 92       	push	r11
    1de2:	cf 92       	push	r12
    1de4:	df 92       	push	r13
    1de6:	ef 92       	push	r14
    1de8:	ff 92       	push	r15
    1dea:	0f 93       	push	r16
    1dec:	1f 93       	push	r17
    1dee:	cf 93       	push	r28
    1df0:	df 93       	push	r29
    1df2:	cd b7       	in	r28, 0x3d	; 61
    1df4:	de b7       	in	r29, 0x3e	; 62
    1df6:	2a 97       	sbiw	r28, 0x0a	; 10
    1df8:	0f b6       	in	r0, 0x3f	; 63
    1dfa:	f8 94       	cli
    1dfc:	de bf       	out	0x3e, r29	; 62
    1dfe:	0f be       	out	0x3f, r0	; 63
    1e00:	cd bf       	out	0x3d, r28	; 61
    1e02:	2c 01       	movw	r4, r24
    1e04:	1b 01       	movw	r2, r22
    1e06:	3a 01       	movw	r6, r20
    1e08:	1a 86       	std	Y+10, r1	; 0x0a
    1e0a:	19 86       	std	Y+9, r1	; 0x09
    1e0c:	6e c0       	rjmp	.+220    	; 0x1eea <precompute_cuarto_circulo_arrays+0x11c>
    1e0e:	29 85       	ldd	r18, Y+9	; 0x09
    1e10:	3a 85       	ldd	r19, Y+10	; 0x0a
    1e12:	b9 01       	movw	r22, r18
    1e14:	80 e0       	ldi	r24, 0x00	; 0
    1e16:	90 e0       	ldi	r25, 0x00	; 0
    1e18:	0e 94 4f 13 	call	0x269e	; 0x269e <__floatunsisf>
    1e1c:	2b ed       	ldi	r18, 0xDB	; 219
    1e1e:	3f e0       	ldi	r19, 0x0F	; 15
    1e20:	49 e4       	ldi	r20, 0x49	; 73
    1e22:	50 e4       	ldi	r21, 0x40	; 64
    1e24:	0e 94 60 16 	call	0x2cc0	; 0x2cc0 <__mulsf3>
    1e28:	20 e0       	ldi	r18, 0x00	; 0
    1e2a:	30 e0       	ldi	r19, 0x00	; 0
    1e2c:	44 e3       	ldi	r20, 0x34	; 52
    1e2e:	53 e4       	ldi	r21, 0x43	; 67
    1e30:	0e 94 5c 16 	call	0x2cb8	; 0x2cb8 <__divsf3>
    1e34:	6b 01       	movw	r12, r22
    1e36:	7c 01       	movw	r14, r24
    1e38:	0e 94 32 0e 	call	0x1c64	; 0x1c64 <cosf>
    1e3c:	4b 01       	movw	r8, r22
    1e3e:	5c 01       	movw	r10, r24
    1e40:	c7 01       	movw	r24, r14
    1e42:	b6 01       	movw	r22, r12
    1e44:	0e 94 7f 0c 	call	0x18fe	; 0x18fe <sinf>
    1e48:	69 83       	std	Y+1, r22	; 0x01
    1e4a:	7a 83       	std	Y+2, r23	; 0x02
    1e4c:	8b 83       	std	Y+3, r24	; 0x03
    1e4e:	9c 83       	std	Y+4, r25	; 0x04
    1e50:	20 e0       	ldi	r18, 0x00	; 0
    1e52:	30 e0       	ldi	r19, 0x00	; 0
    1e54:	a9 01       	movw	r20, r18
    1e56:	c5 01       	movw	r24, r10
    1e58:	b4 01       	movw	r22, r8
    1e5a:	0e 94 49 16 	call	0x2c92	; 0x2c92 <__cmpsf2>
    1e5e:	88 23       	and	r24, r24
    1e60:	1c f4       	brge	.+6      	; 0x1e68 <precompute_cuarto_circulo_arrays+0x9a>
    1e62:	81 2c       	mov	r8, r1
    1e64:	91 2c       	mov	r9, r1
    1e66:	54 01       	movw	r10, r8
    1e68:	20 e0       	ldi	r18, 0x00	; 0
    1e6a:	30 e0       	ldi	r19, 0x00	; 0
    1e6c:	a9 01       	movw	r20, r18
    1e6e:	69 81       	ldd	r22, Y+1	; 0x01
    1e70:	7a 81       	ldd	r23, Y+2	; 0x02
    1e72:	8b 81       	ldd	r24, Y+3	; 0x03
    1e74:	9c 81       	ldd	r25, Y+4	; 0x04
    1e76:	0e 94 49 16 	call	0x2c92	; 0x2c92 <__cmpsf2>
    1e7a:	88 23       	and	r24, r24
    1e7c:	24 f4       	brge	.+8      	; 0x1e86 <precompute_cuarto_circulo_arrays+0xb8>
    1e7e:	19 82       	std	Y+1, r1	; 0x01
    1e80:	1a 82       	std	Y+2, r1	; 0x02
    1e82:	1b 82       	std	Y+3, r1	; 0x03
    1e84:	1c 82       	std	Y+4, r1	; 0x04
    1e86:	09 85       	ldd	r16, Y+9	; 0x09
    1e88:	1a 85       	ldd	r17, Y+10	; 0x0a
    1e8a:	00 0f       	add	r16, r16
    1e8c:	11 1f       	adc	r17, r17
    1e8e:	71 01       	movw	r14, r2
    1e90:	e0 0e       	add	r14, r16
    1e92:	f1 1e       	adc	r15, r17
    1e94:	b2 01       	movw	r22, r4
    1e96:	80 e0       	ldi	r24, 0x00	; 0
    1e98:	90 e0       	ldi	r25, 0x00	; 0
    1e9a:	0e 94 4f 13 	call	0x269e	; 0x269e <__floatunsisf>
    1e9e:	6d 83       	std	Y+5, r22	; 0x05
    1ea0:	7e 83       	std	Y+6, r23	; 0x06
    1ea2:	8f 83       	std	Y+7, r24	; 0x07
    1ea4:	98 87       	std	Y+8, r25	; 0x08
    1ea6:	9b 01       	movw	r18, r22
    1ea8:	ac 01       	movw	r20, r24
    1eaa:	c5 01       	movw	r24, r10
    1eac:	b4 01       	movw	r22, r8
    1eae:	0e 94 60 16 	call	0x2cc0	; 0x2cc0 <__mulsf3>
    1eb2:	0e 94 4e 16 	call	0x2c9c	; 0x2c9c <lrintf>
    1eb6:	f7 01       	movw	r30, r14
    1eb8:	71 83       	std	Z+1, r23	; 0x01
    1eba:	60 83       	st	Z, r22
    1ebc:	06 0d       	add	r16, r6
    1ebe:	17 1d       	adc	r17, r7
    1ec0:	2d 81       	ldd	r18, Y+5	; 0x05
    1ec2:	3e 81       	ldd	r19, Y+6	; 0x06
    1ec4:	4f 81       	ldd	r20, Y+7	; 0x07
    1ec6:	58 85       	ldd	r21, Y+8	; 0x08
    1ec8:	69 81       	ldd	r22, Y+1	; 0x01
    1eca:	7a 81       	ldd	r23, Y+2	; 0x02
    1ecc:	8b 81       	ldd	r24, Y+3	; 0x03
    1ece:	9c 81       	ldd	r25, Y+4	; 0x04
    1ed0:	0e 94 60 16 	call	0x2cc0	; 0x2cc0 <__mulsf3>
    1ed4:	0e 94 4e 16 	call	0x2c9c	; 0x2c9c <lrintf>
    1ed8:	f8 01       	movw	r30, r16
    1eda:	71 83       	std	Z+1, r23	; 0x01
    1edc:	60 83       	st	Z, r22
    1ede:	29 85       	ldd	r18, Y+9	; 0x09
    1ee0:	3a 85       	ldd	r19, Y+10	; 0x0a
    1ee2:	2f 5f       	subi	r18, 0xFF	; 255
    1ee4:	3f 4f       	sbci	r19, 0xFF	; 255
    1ee6:	3a 87       	std	Y+10, r19	; 0x0a
    1ee8:	29 87       	std	Y+9, r18	; 0x09
    1eea:	89 85       	ldd	r24, Y+9	; 0x09
    1eec:	9a 85       	ldd	r25, Y+10	; 0x0a
    1eee:	8b 35       	cpi	r24, 0x5B	; 91
    1ef0:	91 05       	cpc	r25, r1
    1ef2:	08 f4       	brcc	.+2      	; 0x1ef6 <precompute_cuarto_circulo_arrays+0x128>
    1ef4:	8c cf       	rjmp	.-232    	; 0x1e0e <precompute_cuarto_circulo_arrays+0x40>
    1ef6:	2a 96       	adiw	r28, 0x0a	; 10
    1ef8:	0f b6       	in	r0, 0x3f	; 63
    1efa:	f8 94       	cli
    1efc:	de bf       	out	0x3e, r29	; 62
    1efe:	0f be       	out	0x3f, r0	; 63
    1f00:	cd bf       	out	0x3d, r28	; 61
    1f02:	df 91       	pop	r29
    1f04:	cf 91       	pop	r28
    1f06:	1f 91       	pop	r17
    1f08:	0f 91       	pop	r16
    1f0a:	ff 90       	pop	r15
    1f0c:	ef 90       	pop	r14
    1f0e:	df 90       	pop	r13
    1f10:	cf 90       	pop	r12
    1f12:	bf 90       	pop	r11
    1f14:	af 90       	pop	r10
    1f16:	9f 90       	pop	r9
    1f18:	8f 90       	pop	r8
    1f1a:	7f 90       	pop	r7
    1f1c:	6f 90       	pop	r6
    1f1e:	5f 90       	pop	r5
    1f20:	4f 90       	pop	r4
    1f22:	3f 90       	pop	r3
    1f24:	2f 90       	pop	r2
    1f26:	08 95       	ret

Disassembly of section .text.apagar:

00002c2e <apagar>:
    2c2e:	8b b1       	in	r24, 0x0b	; 11
    2c30:	83 70       	andi	r24, 0x03	; 3
    2c32:	88 60       	ori	r24, 0x08	; 8
    2c34:	8b b9       	out	0x0b, r24	; 11
    2c36:	08 95       	ret

Disassembly of section .text.apagar2:

00002cb0 <apagar2>:

}

void apagar2(void){

	PORTD = (PORTD & 0b00001111) | 0b00000000;
    2cb0:	8b b1       	in	r24, 0x0b	; 11
    2cb2:	8f 70       	andi	r24, 0x0F	; 15
    2cb4:	8b b9       	out	0x0b, r24	; 11
    2cb6:	08 95       	ret

Disassembly of section .text.Subir_s:

00002c38 <Subir_s>:
    2c38:	8b b1       	in	r24, 0x0b	; 11
    2c3a:	83 70       	andi	r24, 0x03	; 3
    2c3c:	84 60       	ori	r24, 0x04	; 4
    2c3e:	8b b9       	out	0x0b, r24	; 11
    2c40:	08 95       	ret

Disassembly of section .text.Bajar:

00002c42 <Bajar>:
    2c42:	8b b1       	in	r24, 0x0b	; 11
    2c44:	8f 70       	andi	r24, 0x0F	; 15
    2c46:	80 61       	ori	r24, 0x10	; 16
    2c48:	8b b9       	out	0x0b, r24	; 11
    2c4a:	08 95       	ret

Disassembly of section .text.Subir:

00002c4c <Subir>:
    2c4c:	8b b1       	in	r24, 0x0b	; 11
    2c4e:	8f 70       	andi	r24, 0x0F	; 15
    2c50:	80 62       	ori	r24, 0x20	; 32
    2c52:	8b b9       	out	0x0b, r24	; 11
    2c54:	08 95       	ret

Disassembly of section .text.Izquierda:

00002c56 <Izquierda>:
    2c56:	8b b1       	in	r24, 0x0b	; 11
    2c58:	8f 70       	andi	r24, 0x0F	; 15
    2c5a:	80 64       	ori	r24, 0x40	; 64
    2c5c:	8b b9       	out	0x0b, r24	; 11
    2c5e:	08 95       	ret

Disassembly of section .text.Derecha:

00002c60 <Derecha>:
    2c60:	8b b1       	in	r24, 0x0b	; 11
    2c62:	8f 70       	andi	r24, 0x0F	; 15
    2c64:	80 68       	ori	r24, 0x80	; 128
    2c66:	8b b9       	out	0x0b, r24	; 11
    2c68:	08 95       	ret

Disassembly of section .text.Hacer_circulo:

00001690 <Hacer_circulo>:
    1690:	2f 92       	push	r2
    1692:	3f 92       	push	r3
    1694:	4f 92       	push	r4
    1696:	6f 92       	push	r6
    1698:	7f 92       	push	r7
    169a:	8f 92       	push	r8
    169c:	cf 92       	push	r12
    169e:	df 92       	push	r13
    16a0:	ef 92       	push	r14
    16a2:	0f 93       	push	r16
    16a4:	1f 93       	push	r17
    16a6:	cf 93       	push	r28
    16a8:	df 93       	push	r29
    16aa:	cd b7       	in	r28, 0x3d	; 61
    16ac:	de b7       	in	r29, 0x3e	; 62
    16ae:	cc 56       	subi	r28, 0x6C	; 108
    16b0:	d1 40       	sbci	r29, 0x01	; 1
    16b2:	0f b6       	in	r0, 0x3f	; 63
    16b4:	f8 94       	cli
    16b6:	de bf       	out	0x3e, r29	; 62
    16b8:	0f be       	out	0x3f, r0	; 63
    16ba:	cd bf       	out	0x3d, r28	; 61
    16bc:	ae 01       	movw	r20, r28
    16be:	49 54       	subi	r20, 0x49	; 73
    16c0:	5f 4f       	sbci	r21, 0xFF	; 255
    16c2:	be 01       	movw	r22, r28
    16c4:	6f 5f       	subi	r22, 0xFF	; 255
    16c6:	7f 4f       	sbci	r23, 0xFF	; 255
    16c8:	84 e6       	ldi	r24, 0x64	; 100
    16ca:	90 e0       	ldi	r25, 0x00	; 0
    16cc:	0e 94 e7 0e 	call	0x1dce	; 0x1dce <precompute_cuarto_circulo_arrays>
    16d0:	60 e0       	ldi	r22, 0x00	; 0
    16d2:	70 e0       	ldi	r23, 0x00	; 0
    16d4:	88 ec       	ldi	r24, 0xC8	; 200
    16d6:	92 e4       	ldi	r25, 0x42	; 66
    16d8:	0e 94 9a 14 	call	0x2934	; 0x2934 <delay_ms_timer1>
    16dc:	0e 94 1c 16 	call	0x2c38	; 0x2c38 <Subir_s>
    16e0:	f8 94       	cli
    16e2:	00 e0       	ldi	r16, 0x00	; 0
    16e4:	10 e0       	ldi	r17, 0x00	; 0
    16e6:	34 c0       	rjmp	.+104    	; 0x1750 <Hacer_circulo+0xc0>
    16e8:	3e 01       	movw	r6, r28
    16ea:	27 eb       	ldi	r18, 0xB7	; 183
    16ec:	62 0e       	add	r6, r18
    16ee:	71 1c       	adc	r7, r1
    16f0:	80 e8       	ldi	r24, 0x80	; 128
    16f2:	88 2e       	mov	r8, r24
    16f4:	ce 01       	movw	r24, r28
    16f6:	01 96       	adiw	r24, 0x01	; 1
    16f8:	6c 01       	movw	r12, r24
    16fa:	20 e8       	ldi	r18, 0x80	; 128
    16fc:	e2 2e       	mov	r14, r18
    16fe:	0a 35       	cpi	r16, 0x5A	; 90
    1700:	11 05       	cpc	r17, r1
    1702:	20 f5       	brcc	.+72     	; 0x174c <Hacer_circulo+0xbc>
    1704:	0e 94 26 16 	call	0x2c4c	; 0x2c4c <Subir>
    1708:	18 01       	movw	r2, r16
    170a:	22 0c       	add	r2, r2
    170c:	33 1c       	adc	r3, r3
    170e:	03 2c       	mov	r0, r3
    1710:	00 0c       	add	r0, r0
    1712:	44 08       	sbc	r4, r4
    1714:	c2 0c       	add	r12, r2
    1716:	d3 1c       	adc	r13, r3
    1718:	e4 1c       	adc	r14, r4
    171a:	f6 01       	movw	r30, r12
    171c:	5e 2d       	mov	r21, r14
    171e:	0e 94 e0 15 	call	0x2bc0	; 0x2bc0 <__xload_2>
    1722:	80 e0       	ldi	r24, 0x00	; 0
    1724:	90 e0       	ldi	r25, 0x00	; 0
    1726:	0e 94 4f 13 	call	0x269e	; 0x269e <__floatunsisf>
    172a:	0e 94 9a 14 	call	0x2934	; 0x2934 <delay_ms_timer1>
    172e:	0e 94 30 16 	call	0x2c60	; 0x2c60 <Derecha>
    1732:	62 0c       	add	r6, r2
    1734:	73 1c       	adc	r7, r3
    1736:	84 1c       	adc	r8, r4
    1738:	f3 01       	movw	r30, r6
    173a:	58 2d       	mov	r21, r8
    173c:	0e 94 e0 15 	call	0x2bc0	; 0x2bc0 <__xload_2>
    1740:	80 e0       	ldi	r24, 0x00	; 0
    1742:	90 e0       	ldi	r25, 0x00	; 0
    1744:	0e 94 4f 13 	call	0x269e	; 0x269e <__floatunsisf>
    1748:	0e 94 9a 14 	call	0x2934	; 0x2934 <delay_ms_timer1>
    174c:	0f 5f       	subi	r16, 0xFF	; 255
    174e:	1f 4f       	sbci	r17, 0xFF	; 255
    1750:	0b 35       	cpi	r16, 0x5B	; 91
    1752:	11 05       	cpc	r17, r1
    1754:	48 f2       	brcs	.-110    	; 0x16e8 <Hacer_circulo+0x58>
    1756:	0e 94 58 16 	call	0x2cb0	; 0x2cb0 <apagar2>
    175a:	00 e0       	ldi	r16, 0x00	; 0
    175c:	10 e0       	ldi	r17, 0x00	; 0
    175e:	34 c0       	rjmp	.+104    	; 0x17c8 <Hacer_circulo+0x138>
    1760:	3e 01       	movw	r6, r28
    1762:	87 eb       	ldi	r24, 0xB7	; 183
    1764:	68 0e       	add	r6, r24
    1766:	71 1c       	adc	r7, r1
    1768:	20 e8       	ldi	r18, 0x80	; 128
    176a:	82 2e       	mov	r8, r18
    176c:	ce 01       	movw	r24, r28
    176e:	01 96       	adiw	r24, 0x01	; 1
    1770:	6c 01       	movw	r12, r24
    1772:	20 e8       	ldi	r18, 0x80	; 128
    1774:	e2 2e       	mov	r14, r18
    1776:	0a 35       	cpi	r16, 0x5A	; 90
    1778:	11 05       	cpc	r17, r1
    177a:	20 f5       	brcc	.+72     	; 0x17c4 <Hacer_circulo+0x134>
    177c:	0e 94 30 16 	call	0x2c60	; 0x2c60 <Derecha>
    1780:	18 01       	movw	r2, r16
    1782:	22 0c       	add	r2, r2
    1784:	33 1c       	adc	r3, r3
    1786:	03 2c       	mov	r0, r3
    1788:	00 0c       	add	r0, r0
    178a:	44 08       	sbc	r4, r4
    178c:	c2 0c       	add	r12, r2
    178e:	d3 1c       	adc	r13, r3
    1790:	e4 1c       	adc	r14, r4
    1792:	f6 01       	movw	r30, r12
    1794:	5e 2d       	mov	r21, r14
    1796:	0e 94 e0 15 	call	0x2bc0	; 0x2bc0 <__xload_2>
    179a:	80 e0       	ldi	r24, 0x00	; 0
    179c:	90 e0       	ldi	r25, 0x00	; 0
    179e:	0e 94 4f 13 	call	0x269e	; 0x269e <__floatunsisf>
    17a2:	0e 94 9a 14 	call	0x2934	; 0x2934 <delay_ms_timer1>
    17a6:	0e 94 21 16 	call	0x2c42	; 0x2c42 <Bajar>
    17aa:	62 0c       	add	r6, r2
    17ac:	73 1c       	adc	r7, r3
    17ae:	84 1c       	adc	r8, r4
    17b0:	f3 01       	movw	r30, r6
    17b2:	58 2d       	mov	r21, r8
    17b4:	0e 94 e0 15 	call	0x2bc0	; 0x2bc0 <__xload_2>
    17b8:	80 e0       	ldi	r24, 0x00	; 0
    17ba:	90 e0       	ldi	r25, 0x00	; 0
    17bc:	0e 94 4f 13 	call	0x269e	; 0x269e <__floatunsisf>
    17c0:	0e 94 9a 14 	call	0x2934	; 0x2934 <delay_ms_timer1>
    17c4:	0f 5f       	subi	r16, 0xFF	; 255
    17c6:	1f 4f       	sbci	r17, 0xFF	; 255
    17c8:	0b 35       	cpi	r16, 0x5B	; 91
    17ca:	11 05       	cpc	r17, r1
    17cc:	48 f2       	brcs	.-110    	; 0x1760 <Hacer_circulo+0xd0>
    17ce:	0e 94 58 16 	call	0x2cb0	; 0x2cb0 <apagar2>
    17d2:	00 e0       	ldi	r16, 0x00	; 0
    17d4:	10 e0       	ldi	r17, 0x00	; 0
    17d6:	34 c0       	rjmp	.+104    	; 0x1840 <Hacer_circulo+0x1b0>
    17d8:	3e 01       	movw	r6, r28
    17da:	87 eb       	ldi	r24, 0xB7	; 183
    17dc:	68 0e       	add	r6, r24
    17de:	71 1c       	adc	r7, r1
    17e0:	20 e8       	ldi	r18, 0x80	; 128
    17e2:	82 2e       	mov	r8, r18
    17e4:	ce 01       	movw	r24, r28
    17e6:	01 96       	adiw	r24, 0x01	; 1
    17e8:	6c 01       	movw	r12, r24
    17ea:	20 e8       	ldi	r18, 0x80	; 128
    17ec:	e2 2e       	mov	r14, r18
    17ee:	0a 35       	cpi	r16, 0x5A	; 90
    17f0:	11 05       	cpc	r17, r1
    17f2:	20 f5       	brcc	.+72     	; 0x183c <Hacer_circulo+0x1ac>
    17f4:	0e 94 21 16 	call	0x2c42	; 0x2c42 <Bajar>
    17f8:	18 01       	movw	r2, r16
    17fa:	22 0c       	add	r2, r2
    17fc:	33 1c       	adc	r3, r3
    17fe:	03 2c       	mov	r0, r3
    1800:	00 0c       	add	r0, r0
    1802:	44 08       	sbc	r4, r4
    1804:	c2 0c       	add	r12, r2
    1806:	d3 1c       	adc	r13, r3
    1808:	e4 1c       	adc	r14, r4
    180a:	f6 01       	movw	r30, r12
    180c:	5e 2d       	mov	r21, r14
    180e:	0e 94 e0 15 	call	0x2bc0	; 0x2bc0 <__xload_2>
    1812:	80 e0       	ldi	r24, 0x00	; 0
    1814:	90 e0       	ldi	r25, 0x00	; 0
    1816:	0e 94 4f 13 	call	0x269e	; 0x269e <__floatunsisf>
    181a:	0e 94 9a 14 	call	0x2934	; 0x2934 <delay_ms_timer1>
    181e:	0e 94 2b 16 	call	0x2c56	; 0x2c56 <Izquierda>
    1822:	62 0c       	add	r6, r2
    1824:	73 1c       	adc	r7, r3
    1826:	84 1c       	adc	r8, r4
    1828:	f3 01       	movw	r30, r6
    182a:	58 2d       	mov	r21, r8
    182c:	0e 94 e0 15 	call	0x2bc0	; 0x2bc0 <__xload_2>
    1830:	80 e0       	ldi	r24, 0x00	; 0
    1832:	90 e0       	ldi	r25, 0x00	; 0
    1834:	0e 94 4f 13 	call	0x269e	; 0x269e <__floatunsisf>
    1838:	0e 94 9a 14 	call	0x2934	; 0x2934 <delay_ms_timer1>
    183c:	0f 5f       	subi	r16, 0xFF	; 255
    183e:	1f 4f       	sbci	r17, 0xFF	; 255
    1840:	0b 35       	cpi	r16, 0x5B	; 91
    1842:	11 05       	cpc	r17, r1
    1844:	48 f2       	brcs	.-110    	; 0x17d8 <Hacer_circulo+0x148>
    1846:	0e 94 58 16 	call	0x2cb0	; 0x2cb0 <apagar2>
    184a:	00 e0       	ldi	r16, 0x00	; 0
    184c:	10 e0       	ldi	r17, 0x00	; 0
    184e:	34 c0       	rjmp	.+104    	; 0x18b8 <Hacer_circulo+0x228>
    1850:	3e 01       	movw	r6, r28
    1852:	87 eb       	ldi	r24, 0xB7	; 183
    1854:	68 0e       	add	r6, r24
    1856:	71 1c       	adc	r7, r1
    1858:	20 e8       	ldi	r18, 0x80	; 128
    185a:	82 2e       	mov	r8, r18
    185c:	ce 01       	movw	r24, r28
    185e:	01 96       	adiw	r24, 0x01	; 1
    1860:	6c 01       	movw	r12, r24
    1862:	20 e8       	ldi	r18, 0x80	; 128
    1864:	e2 2e       	mov	r14, r18
    1866:	0a 35       	cpi	r16, 0x5A	; 90
    1868:	11 05       	cpc	r17, r1
    186a:	20 f5       	brcc	.+72     	; 0x18b4 <Hacer_circulo+0x224>
    186c:	0e 94 2b 16 	call	0x2c56	; 0x2c56 <Izquierda>
    1870:	18 01       	movw	r2, r16
    1872:	22 0c       	add	r2, r2
    1874:	33 1c       	adc	r3, r3
    1876:	03 2c       	mov	r0, r3
    1878:	00 0c       	add	r0, r0
    187a:	44 08       	sbc	r4, r4
    187c:	c2 0c       	add	r12, r2
    187e:	d3 1c       	adc	r13, r3
    1880:	e4 1c       	adc	r14, r4
    1882:	f6 01       	movw	r30, r12
    1884:	5e 2d       	mov	r21, r14
    1886:	0e 94 e0 15 	call	0x2bc0	; 0x2bc0 <__xload_2>
    188a:	80 e0       	ldi	r24, 0x00	; 0
    188c:	90 e0       	ldi	r25, 0x00	; 0
    188e:	0e 94 4f 13 	call	0x269e	; 0x269e <__floatunsisf>
    1892:	0e 94 9a 14 	call	0x2934	; 0x2934 <delay_ms_timer1>
    1896:	0e 94 26 16 	call	0x2c4c	; 0x2c4c <Subir>
    189a:	62 0c       	add	r6, r2
    189c:	73 1c       	adc	r7, r3
    189e:	84 1c       	adc	r8, r4
    18a0:	f3 01       	movw	r30, r6
    18a2:	58 2d       	mov	r21, r8
    18a4:	0e 94 e0 15 	call	0x2bc0	; 0x2bc0 <__xload_2>
    18a8:	80 e0       	ldi	r24, 0x00	; 0
    18aa:	90 e0       	ldi	r25, 0x00	; 0
    18ac:	0e 94 4f 13 	call	0x269e	; 0x269e <__floatunsisf>
    18b0:	0e 94 9a 14 	call	0x2934	; 0x2934 <delay_ms_timer1>
    18b4:	0f 5f       	subi	r16, 0xFF	; 255
    18b6:	1f 4f       	sbci	r17, 0xFF	; 255
    18b8:	0b 35       	cpi	r16, 0x5B	; 91
    18ba:	11 05       	cpc	r17, r1
    18bc:	48 f2       	brcs	.-110    	; 0x1850 <Hacer_circulo+0x1c0>
    18be:	78 94       	sei
    18c0:	0e 94 17 16 	call	0x2c2e	; 0x2c2e <apagar>
    18c4:	60 e0       	ldi	r22, 0x00	; 0
    18c6:	70 e0       	ldi	r23, 0x00	; 0
    18c8:	88 ec       	ldi	r24, 0xC8	; 200
    18ca:	92 e4       	ldi	r25, 0x42	; 66
    18cc:	0e 94 9a 14 	call	0x2934	; 0x2934 <delay_ms_timer1>
    18d0:	0e 94 17 16 	call	0x2c2e	; 0x2c2e <apagar>
    18d4:	c4 59       	subi	r28, 0x94	; 148
    18d6:	de 4f       	sbci	r29, 0xFE	; 254
    18d8:	0f b6       	in	r0, 0x3f	; 63
    18da:	f8 94       	cli
    18dc:	de bf       	out	0x3e, r29	; 62
    18de:	0f be       	out	0x3f, r0	; 63
    18e0:	cd bf       	out	0x3d, r28	; 61
    18e2:	df 91       	pop	r29
    18e4:	cf 91       	pop	r28
    18e6:	1f 91       	pop	r17
    18e8:	0f 91       	pop	r16
    18ea:	ef 90       	pop	r14
    18ec:	df 90       	pop	r13
    18ee:	cf 90       	pop	r12
    18f0:	8f 90       	pop	r8
    18f2:	7f 90       	pop	r7
    18f4:	6f 90       	pop	r6
    18f6:	4f 90       	pop	r4
    18f8:	3f 90       	pop	r3
    18fa:	2f 90       	pop	r2
    18fc:	08 95       	ret

Disassembly of section .text.AbajoIzquierda:

00002c6a <AbajoIzquierda>:
PORTD = (PORTD & 0b00001111) | 0b10000000;
}

void AbajoIzquierda(void)
{
	PORTD = (PORTD & 0b00001111) | 0b01010000; // D6 y D4
    2c6a:	8b b1       	in	r24, 0x0b	; 11
    2c6c:	8f 70       	andi	r24, 0x0F	; 15
    2c6e:	80 65       	ori	r24, 0x50	; 80
    2c70:	8b b9       	out	0x0b, r24	; 11
    2c72:	08 95       	ret

Disassembly of section .text.AbajoDerecha:

00002c74 <AbajoDerecha>:
}

void AbajoDerecha(void){
	PORTD = (PORTD & 0b00001111) | 0b10010000; // D6 y D4
    2c74:	8b b1       	in	r24, 0x0b	; 11
    2c76:	8f 70       	andi	r24, 0x0F	; 15
    2c78:	80 69       	ori	r24, 0x90	; 144
    2c7a:	8b b9       	out	0x0b, r24	; 11
    2c7c:	08 95       	ret

Disassembly of section .text.centrar:

00002b08 <centrar>:
    2b08:	10 92 00 02 	sts	0x0200, r1	; 0x800200 <CONTADOR>
    2b0c:	82 ec       	ldi	r24, 0xC2	; 194
    2b0e:	80 93 85 00 	sts	0x0085, r24	; 0x800085 <__TEXT_REGION_LENGTH__+0x7f8085>
    2b12:	87 ef       	ldi	r24, 0xF7	; 247
    2b14:	80 93 84 00 	sts	0x0084, r24	; 0x800084 <__TEXT_REGION_LENGTH__+0x7f8084>
    2b18:	02 c0       	rjmp	.+4      	; 0x2b1e <centrar+0x16>
    2b1a:	0e 94 3a 16 	call	0x2c74	; 0x2c74 <AbajoDerecha>
    2b1e:	80 91 00 02 	lds	r24, 0x0200	; 0x800200 <CONTADOR>
    2b22:	86 30       	cpi	r24, 0x06	; 6
    2b24:	d0 f3       	brcs	.-12     	; 0x2b1a <centrar+0x12>
    2b26:	0e 94 17 16 	call	0x2c2e	; 0x2c2e <apagar>
    2b2a:	08 95       	ret

Disassembly of section .text.ArribaIzquierda:

00002c7e <ArribaIzquierda>:
}

void ArribaIzquierda(void)
{
	PORTD = (PORTD & 0b00001111) | 0b01100000; // D3 y D4
    2c7e:	8b b1       	in	r24, 0x0b	; 11
    2c80:	8f 70       	andi	r24, 0x0F	; 15
    2c82:	80 66       	ori	r24, 0x60	; 96
    2c84:	8b b9       	out	0x0b, r24	; 11
    2c86:	08 95       	ret

Disassembly of section .text.ArribaDerecha:

00002c88 <ArribaDerecha>:
}

void ArribaDerecha(void){
	PORTD = (PORTD & 0b00001111) | 0b10100000; // D6 y D4
    2c88:	8b b1       	in	r24, 0x0b	; 11
    2c8a:	8f 70       	andi	r24, 0x0F	; 15
    2c8c:	80 6a       	ori	r24, 0xA0	; 160
    2c8e:	8b b9       	out	0x0b, r24	; 11
    2c90:	08 95       	ret

Disassembly of section .text.peurbas:

0000284e <peurbas>:
    284e:	90 e0       	ldi	r25, 0x00	; 0
    2850:	fc 01       	movw	r30, r24
    2852:	e3 56       	subi	r30, 0x63	; 99
    2854:	f1 09       	sbc	r31, r1
    2856:	e8 31       	cpi	r30, 0x18	; 24
    2858:	f1 05       	cpc	r31, r1
    285a:	20 f5       	brcc	.+72     	; 0x28a4 <peurbas+0x56>
    285c:	ec 5c       	subi	r30, 0xCC	; 204
    285e:	ff 4f       	sbci	r31, 0xFF	; 255
    2860:	0c 94 11 16 	jmp	0x2c22	; 0x2c22 <__tablejump2__>
    2864:	0e 94 17 16 	call	0x2c2e	; 0x2c2e <apagar>
    2868:	08 95       	ret
    286a:	0e 94 1c 16 	call	0x2c38	; 0x2c38 <Subir_s>
    286e:	08 95       	ret
    2870:	0e 94 26 16 	call	0x2c4c	; 0x2c4c <Subir>
    2874:	08 95       	ret
    2876:	0e 94 21 16 	call	0x2c42	; 0x2c42 <Bajar>
    287a:	08 95       	ret
    287c:	0e 94 2b 16 	call	0x2c56	; 0x2c56 <Izquierda>
    2880:	08 95       	ret
    2882:	0e 94 30 16 	call	0x2c60	; 0x2c60 <Derecha>
    2886:	08 95       	ret
    2888:	0e 94 35 16 	call	0x2c6a	; 0x2c6a <AbajoIzquierda>
    288c:	08 95       	ret
    288e:	0e 94 3a 16 	call	0x2c74	; 0x2c74 <AbajoDerecha>
    2892:	08 95       	ret
    2894:	0e 94 3f 16 	call	0x2c7e	; 0x2c7e <ArribaIzquierda>
    2898:	08 95       	ret
    289a:	0e 94 44 16 	call	0x2c88	; 0x2c88 <ArribaDerecha>
    289e:	08 95       	ret
    28a0:	0e 94 84 15 	call	0x2b08	; 0x2b08 <centrar>
    28a4:	08 95       	ret

Disassembly of section .text.__vector_13:

00002a5e <__vector_13>:
    2a5e:	1f 92       	push	r1
    2a60:	0f 92       	push	r0
    2a62:	0f b6       	in	r0, 0x3f	; 63
    2a64:	0f 92       	push	r0
    2a66:	11 24       	eor	r1, r1
    2a68:	8f 93       	push	r24
    2a6a:	80 91 00 02 	lds	r24, 0x0200	; 0x800200 <CONTADOR>
    2a6e:	8f 5f       	subi	r24, 0xFF	; 255
    2a70:	80 93 00 02 	sts	0x0200, r24	; 0x800200 <CONTADOR>
    2a74:	82 ec       	ldi	r24, 0xC2	; 194
    2a76:	80 93 85 00 	sts	0x0085, r24	; 0x800085 <__TEXT_REGION_LENGTH__+0x7f8085>
    2a7a:	87 ef       	ldi	r24, 0xF7	; 247
    2a7c:	80 93 84 00 	sts	0x0084, r24	; 0x800084 <__TEXT_REGION_LENGTH__+0x7f8084>
    2a80:	8f 91       	pop	r24
    2a82:	0f 90       	pop	r0
    2a84:	0f be       	out	0x3f, r0	; 63
    2a86:	0f 90       	pop	r0
    2a88:	1f 90       	pop	r1
    2a8a:	18 95       	reti

Disassembly of section .text.serialWrite:

00002620 <serialWrite>:
    2620:	cf 92       	push	r12
    2622:	df 92       	push	r13
    2624:	ef 92       	push	r14
    2626:	0f 93       	push	r16
    2628:	1f 93       	push	r17
    262a:	cf 93       	push	r28
    262c:	6b 01       	movw	r12, r22
    262e:	e8 2e       	mov	r14, r24
    2630:	c0 e0       	ldi	r28, 0x00	; 0
    2632:	1f c0       	rjmp	.+62     	; 0x2672 <serialWrite+0x52>
    2634:	80 91 03 02 	lds	r24, 0x0203	; 0x800203 <serialWritePos>
    2638:	90 e0       	ldi	r25, 0x00	; 0
    263a:	4e 2d       	mov	r20, r14
    263c:	96 01       	movw	r18, r12
    263e:	2c 0f       	add	r18, r28
    2640:	31 1d       	adc	r19, r1
    2642:	41 1d       	adc	r20, r1
    2644:	f9 01       	movw	r30, r18
    2646:	24 91       	lpm	r18, Z
    2648:	47 fd       	sbrc	r20, 7
    264a:	20 81       	ld	r18, Z
    264c:	fc 01       	movw	r30, r24
    264e:	e0 58       	subi	r30, 0x80	; 128
    2650:	fe 4f       	sbci	r31, 0xFE	; 254
    2652:	20 83       	st	Z, r18
    2654:	80 91 03 02 	lds	r24, 0x0203	; 0x800203 <serialWritePos>
    2658:	90 e0       	ldi	r25, 0x00	; 0
    265a:	01 96       	adiw	r24, 0x01	; 1
    265c:	8f 77       	andi	r24, 0x7F	; 127
    265e:	90 78       	andi	r25, 0x80	; 128
    2660:	99 23       	and	r25, r25
    2662:	24 f4       	brge	.+8      	; 0x266c <serialWrite+0x4c>
    2664:	01 97       	sbiw	r24, 0x01	; 1
    2666:	80 68       	ori	r24, 0x80	; 128
    2668:	9f 6f       	ori	r25, 0xFF	; 255
    266a:	01 96       	adiw	r24, 0x01	; 1
    266c:	80 93 03 02 	sts	0x0203, r24	; 0x800203 <serialWritePos>
    2670:	cf 5f       	subi	r28, 0xFF	; 255
    2672:	0c 2f       	mov	r16, r28
    2674:	10 e0       	ldi	r17, 0x00	; 0
    2676:	8e 2d       	mov	r24, r14
    2678:	b6 01       	movw	r22, r12
    267a:	0e 94 46 15 	call	0x2a8c	; 0x2a8c <strlen>
    267e:	99 27       	eor	r25, r25
    2680:	08 17       	cp	r16, r24
    2682:	19 07       	cpc	r17, r25
    2684:	bc f2       	brlt	.-82     	; 0x2634 <serialWrite+0x14>
    2686:	e1 ec       	ldi	r30, 0xC1	; 193
    2688:	f0 e0       	ldi	r31, 0x00	; 0
    268a:	80 81       	ld	r24, Z
    268c:	80 62       	ori	r24, 0x20	; 32
    268e:	80 83       	st	Z, r24
    2690:	cf 91       	pop	r28
    2692:	1f 91       	pop	r17
    2694:	0f 91       	pop	r16
    2696:	ef 90       	pop	r14
    2698:	df 90       	pop	r13
    269a:	cf 90       	pop	r12
    269c:	08 95       	ret

Disassembly of section .text.__vector_19:

00002788 <__vector_19>:
    2788:	1f 92       	push	r1
    278a:	0f 92       	push	r0
    278c:	0f b6       	in	r0, 0x3f	; 63
    278e:	0f 92       	push	r0
    2790:	11 24       	eor	r1, r1
    2792:	8f 93       	push	r24
    2794:	9f 93       	push	r25
    2796:	ef 93       	push	r30
    2798:	ff 93       	push	r31
    279a:	90 91 04 02 	lds	r25, 0x0204	; 0x800204 <serialReadPos>
    279e:	80 91 03 02 	lds	r24, 0x0203	; 0x800203 <serialWritePos>
    27a2:	98 17       	cp	r25, r24
    27a4:	b9 f0       	breq	.+46     	; 0x27d4 <__vector_19+0x4c>
    27a6:	e0 91 04 02 	lds	r30, 0x0204	; 0x800204 <serialReadPos>
    27aa:	f0 e0       	ldi	r31, 0x00	; 0
    27ac:	e0 58       	subi	r30, 0x80	; 128
    27ae:	fe 4f       	sbci	r31, 0xFE	; 254
    27b0:	80 81       	ld	r24, Z
    27b2:	80 93 c6 00 	sts	0x00C6, r24	; 0x8000c6 <__TEXT_REGION_LENGTH__+0x7f80c6>
    27b6:	80 91 04 02 	lds	r24, 0x0204	; 0x800204 <serialReadPos>
    27ba:	90 e0       	ldi	r25, 0x00	; 0
    27bc:	01 96       	adiw	r24, 0x01	; 1
    27be:	8f 77       	andi	r24, 0x7F	; 127
    27c0:	90 78       	andi	r25, 0x80	; 128
    27c2:	99 23       	and	r25, r25
    27c4:	24 f4       	brge	.+8      	; 0x27ce <__vector_19+0x46>
    27c6:	01 97       	sbiw	r24, 0x01	; 1
    27c8:	80 68       	ori	r24, 0x80	; 128
    27ca:	9f 6f       	ori	r25, 0xFF	; 255
    27cc:	01 96       	adiw	r24, 0x01	; 1
    27ce:	80 93 04 02 	sts	0x0204, r24	; 0x800204 <serialReadPos>
    27d2:	05 c0       	rjmp	.+10     	; 0x27de <__vector_19+0x56>
    27d4:	e1 ec       	ldi	r30, 0xC1	; 193
    27d6:	f0 e0       	ldi	r31, 0x00	; 0
    27d8:	80 81       	ld	r24, Z
    27da:	8f 7d       	andi	r24, 0xDF	; 223
    27dc:	80 83       	st	Z, r24
    27de:	ff 91       	pop	r31
    27e0:	ef 91       	pop	r30
    27e2:	9f 91       	pop	r25
    27e4:	8f 91       	pop	r24
    27e6:	0f 90       	pop	r0
    27e8:	0f be       	out	0x3f, r0	; 63
    27ea:	0f 90       	pop	r0
    27ec:	1f 90       	pop	r1
    27ee:	18 95       	reti

Disassembly of section .text.Chardos:

00002a2a <Chardos>:
    2a2a:	90 91 02 02 	lds	r25, 0x0202	; 0x800202 <rxReadPos>
    2a2e:	80 91 01 02 	lds	r24, 0x0201	; 0x800201 <rxWritePos>
    2a32:	98 17       	cp	r25, r24
    2a34:	91 f0       	breq	.+36     	; 0x2a5a <Chardos+0x30>
    2a36:	e0 91 02 02 	lds	r30, 0x0202	; 0x800202 <rxReadPos>
    2a3a:	f0 e0       	ldi	r31, 0x00	; 0
    2a3c:	e0 50       	subi	r30, 0x00	; 0
    2a3e:	ff 4f       	sbci	r31, 0xFF	; 255
    2a40:	80 81       	ld	r24, Z
    2a42:	90 91 02 02 	lds	r25, 0x0202	; 0x800202 <rxReadPos>
    2a46:	9f 5f       	subi	r25, 0xFF	; 255
    2a48:	90 93 02 02 	sts	0x0202, r25	; 0x800202 <rxReadPos>
    2a4c:	90 91 02 02 	lds	r25, 0x0202	; 0x800202 <rxReadPos>
    2a50:	99 23       	and	r25, r25
    2a52:	24 f4       	brge	.+8      	; 0x2a5c <Chardos+0x32>
    2a54:	10 92 02 02 	sts	0x0202, r1	; 0x800202 <rxReadPos>
    2a58:	08 95       	ret
    2a5a:	80 e0       	ldi	r24, 0x00	; 0
    2a5c:	08 95       	ret

Disassembly of section .text.main:

00002718 <main>:
    2718:	10 92 c5 00 	sts	0x00C5, r1	; 0x8000c5 <__TEXT_REGION_LENGTH__+0x7f80c5>
    271c:	87 e6       	ldi	r24, 0x67	; 103
    271e:	80 93 c4 00 	sts	0x00C4, r24	; 0x8000c4 <__TEXT_REGION_LENGTH__+0x7f80c4>
    2722:	10 92 80 00 	sts	0x0080, r1	; 0x800080 <__TEXT_REGION_LENGTH__+0x7f8080>
    2726:	e1 e8       	ldi	r30, 0x81	; 129
    2728:	f0 e0       	ldi	r31, 0x00	; 0
    272a:	80 81       	ld	r24, Z
    272c:	81 60       	ori	r24, 0x01	; 1
    272e:	80 83       	st	Z, r24
    2730:	ef e6       	ldi	r30, 0x6F	; 111
    2732:	f0 e0       	ldi	r31, 0x00	; 0
    2734:	80 81       	ld	r24, Z
    2736:	81 60       	ori	r24, 0x01	; 1
    2738:	80 83       	st	Z, r24
    273a:	88 e9       	ldi	r24, 0x98	; 152
    273c:	80 93 c1 00 	sts	0x00C1, r24	; 0x8000c1 <__TEXT_REGION_LENGTH__+0x7f80c1>
    2740:	86 e0       	ldi	r24, 0x06	; 6
    2742:	80 93 c2 00 	sts	0x00C2, r24	; 0x8000c2 <__TEXT_REGION_LENGTH__+0x7f80c2>
    2746:	78 94       	sei
    2748:	84 b1       	in	r24, 0x04	; 4
    274a:	81 60       	ori	r24, 0x01	; 1
    274c:	84 b9       	out	0x04, r24	; 4
    274e:	8e ef       	ldi	r24, 0xFE	; 254
    2750:	8a b9       	out	0x0a, r24	; 10
    2752:	6a ef       	ldi	r22, 0xFA	; 250
    2754:	71 e0       	ldi	r23, 0x01	; 1
    2756:	80 e0       	ldi	r24, 0x00	; 0
    2758:	0e 94 10 13 	call	0x2620	; 0x2620 <serialWrite>
    275c:	6c e1       	ldi	r22, 0x1C	; 28
    275e:	72 e0       	ldi	r23, 0x02	; 2
    2760:	80 e0       	ldi	r24, 0x00	; 0
    2762:	0e 94 10 13 	call	0x2620	; 0x2620 <serialWrite>
    2766:	81 ee       	ldi	r24, 0xE1	; 225
    2768:	94 e0       	ldi	r25, 0x04	; 4
    276a:	01 97       	sbiw	r24, 0x01	; 1
    276c:	f1 f7       	brne	.-4      	; 0x276a <main+0x52>
    276e:	00 c0       	rjmp	.+0      	; 0x2770 <main+0x58>
    2770:	00 00       	nop
    2772:	0e 94 15 15 	call	0x2a2a	; 0x2a2a <Chardos>
    2776:	c8 2f       	mov	r28, r24
    2778:	81 33       	cpi	r24, 0x31	; 49
    277a:	11 f4       	brne	.+4      	; 0x2780 <main+0x68>
    277c:	0e 94 48 0b 	call	0x1690	; 0x1690 <Hacer_circulo>
    2780:	8c 2f       	mov	r24, r28
    2782:	0e 94 27 14 	call	0x284e	; 0x284e <peurbas>
    2786:	f5 cf       	rjmp	.-22     	; 0x2772 <main+0x5a>

Disassembly of section .text.__vector_18:

000028ee <__vector_18>:
    28ee:	1f 92       	push	r1
    28f0:	0f 92       	push	r0
    28f2:	0f b6       	in	r0, 0x3f	; 63
    28f4:	0f 92       	push	r0
    28f6:	11 24       	eor	r1, r1
    28f8:	8f 93       	push	r24
    28fa:	ef 93       	push	r30
    28fc:	ff 93       	push	r31
    28fe:	e0 91 01 02 	lds	r30, 0x0201	; 0x800201 <rxWritePos>
    2902:	f0 e0       	ldi	r31, 0x00	; 0
    2904:	80 91 c6 00 	lds	r24, 0x00C6	; 0x8000c6 <__TEXT_REGION_LENGTH__+0x7f80c6>
    2908:	e0 50       	subi	r30, 0x00	; 0
    290a:	ff 4f       	sbci	r31, 0xFF	; 255
    290c:	80 83       	st	Z, r24
    290e:	80 91 01 02 	lds	r24, 0x0201	; 0x800201 <rxWritePos>
    2912:	8f 5f       	subi	r24, 0xFF	; 255
    2914:	80 93 01 02 	sts	0x0201, r24	; 0x800201 <rxWritePos>
    2918:	80 91 01 02 	lds	r24, 0x0201	; 0x800201 <rxWritePos>
    291c:	88 23       	and	r24, r24
    291e:	14 f4       	brge	.+4      	; 0x2924 <__vector_18+0x36>
    2920:	10 92 01 02 	sts	0x0201, r1	; 0x800201 <rxWritePos>
    2924:	ff 91       	pop	r31
    2926:	ef 91       	pop	r30
    2928:	8f 91       	pop	r24
    292a:	0f 90       	pop	r0
    292c:	0f be       	out	0x3f, r0	; 63
    292e:	0f 90       	pop	r0
    2930:	1f 90       	pop	r1
    2932:	18 95       	reti

Disassembly of section .text:

00002c92 <__cmpsf2>:
    2c92:	0e 94 53 14 	call	0x28a6	; 0x28a6 <__fp_cmp>
    2c96:	08 f4       	brcc	.+2      	; 0x2c9a <__cmpsf2+0x8>
    2c98:	81 e0       	ldi	r24, 0x01	; 1
    2c9a:	08 95       	ret

Disassembly of section .text:

00002cb8 <__divsf3>:
    2cb8:	0e 94 1d 11 	call	0x223a	; 0x223a <__divsf3x>
    2cbc:	0c 94 96 15 	jmp	0x2b2c	; 0x2b2c <__fp_round>

Disassembly of section .text:

0000223a <__divsf3x>:
    223a:	10 c0       	rjmp	.+32     	; 0x225c <__divsf3x+0x22>
    223c:	0e 94 ef 15 	call	0x2bde	; 0x2bde <__fp_pscB>
    2240:	58 f0       	brcs	.+22     	; 0x2258 <__divsf3x+0x1e>
    2242:	0e 94 e8 15 	call	0x2bd0	; 0x2bd0 <__fp_pscA>
    2246:	40 f0       	brcs	.+16     	; 0x2258 <__divsf3x+0x1e>
    2248:	29 f4       	brne	.+10     	; 0x2254 <__divsf3x+0x1a>
    224a:	5f 3f       	cpi	r21, 0xFF	; 255
    224c:	29 f0       	breq	.+10     	; 0x2258 <__divsf3x+0x1e>
    224e:	0c 94 0b 16 	jmp	0x2c16	; 0x2c16 <__fp_inf>
    2252:	51 11       	cpse	r21, r1
    2254:	0c 94 f7 15 	jmp	0x2bee	; 0x2bee <__fp_szero>
    2258:	0c 94 64 16 	jmp	0x2cc8	; 0x2cc8 <__fp_nan>
    225c:	0e 94 bc 14 	call	0x2978	; 0x2978 <__fp_split3>
    2260:	68 f3       	brcs	.-38     	; 0x223c <__divsf3x+0x2>

00002262 <__divsf3_pse>:
    2262:	99 23       	and	r25, r25
    2264:	b1 f3       	breq	.-20     	; 0x2252 <__divsf3x+0x18>
    2266:	55 23       	and	r21, r21
    2268:	91 f3       	breq	.-28     	; 0x224e <__divsf3x+0x14>
    226a:	95 1b       	sub	r25, r21
    226c:	55 0b       	sbc	r21, r21
    226e:	bb 27       	eor	r27, r27
    2270:	aa 27       	eor	r26, r26
    2272:	62 17       	cp	r22, r18
    2274:	73 07       	cpc	r23, r19
    2276:	84 07       	cpc	r24, r20
    2278:	38 f0       	brcs	.+14     	; 0x2288 <__divsf3_pse+0x26>
    227a:	9f 5f       	subi	r25, 0xFF	; 255
    227c:	5f 4f       	sbci	r21, 0xFF	; 255
    227e:	22 0f       	add	r18, r18
    2280:	33 1f       	adc	r19, r19
    2282:	44 1f       	adc	r20, r20
    2284:	aa 1f       	adc	r26, r26
    2286:	a9 f3       	breq	.-22     	; 0x2272 <__divsf3_pse+0x10>
    2288:	35 d0       	rcall	.+106    	; 0x22f4 <__divsf3_pse+0x92>
    228a:	0e 2e       	mov	r0, r30
    228c:	3a f0       	brmi	.+14     	; 0x229c <__divsf3_pse+0x3a>
    228e:	e0 e8       	ldi	r30, 0x80	; 128
    2290:	32 d0       	rcall	.+100    	; 0x22f6 <__divsf3_pse+0x94>
    2292:	91 50       	subi	r25, 0x01	; 1
    2294:	50 40       	sbci	r21, 0x00	; 0
    2296:	e6 95       	lsr	r30
    2298:	00 1c       	adc	r0, r0
    229a:	ca f7       	brpl	.-14     	; 0x228e <__divsf3_pse+0x2c>
    229c:	2b d0       	rcall	.+86     	; 0x22f4 <__divsf3_pse+0x92>
    229e:	fe 2f       	mov	r31, r30
    22a0:	29 d0       	rcall	.+82     	; 0x22f4 <__divsf3_pse+0x92>
    22a2:	66 0f       	add	r22, r22
    22a4:	77 1f       	adc	r23, r23
    22a6:	88 1f       	adc	r24, r24
    22a8:	bb 1f       	adc	r27, r27
    22aa:	26 17       	cp	r18, r22
    22ac:	37 07       	cpc	r19, r23
    22ae:	48 07       	cpc	r20, r24
    22b0:	ab 07       	cpc	r26, r27
    22b2:	b0 e8       	ldi	r27, 0x80	; 128
    22b4:	09 f0       	breq	.+2      	; 0x22b8 <__divsf3_pse+0x56>
    22b6:	bb 0b       	sbc	r27, r27
    22b8:	80 2d       	mov	r24, r0
    22ba:	bf 01       	movw	r22, r30
    22bc:	ff 27       	eor	r31, r31
    22be:	93 58       	subi	r25, 0x83	; 131
    22c0:	5f 4f       	sbci	r21, 0xFF	; 255
    22c2:	3a f0       	brmi	.+14     	; 0x22d2 <__divsf3_pse+0x70>
    22c4:	9e 3f       	cpi	r25, 0xFE	; 254
    22c6:	51 05       	cpc	r21, r1
    22c8:	78 f0       	brcs	.+30     	; 0x22e8 <__divsf3_pse+0x86>
    22ca:	0c 94 0b 16 	jmp	0x2c16	; 0x2c16 <__fp_inf>
    22ce:	0c 94 f7 15 	jmp	0x2bee	; 0x2bee <__fp_szero>
    22d2:	5f 3f       	cpi	r21, 0xFF	; 255
    22d4:	e4 f3       	brlt	.-8      	; 0x22ce <__divsf3_pse+0x6c>
    22d6:	98 3e       	cpi	r25, 0xE8	; 232
    22d8:	d4 f3       	brlt	.-12     	; 0x22ce <__divsf3_pse+0x6c>
    22da:	86 95       	lsr	r24
    22dc:	77 95       	ror	r23
    22de:	67 95       	ror	r22
    22e0:	b7 95       	ror	r27
    22e2:	f7 95       	ror	r31
    22e4:	9f 5f       	subi	r25, 0xFF	; 255
    22e6:	c9 f7       	brne	.-14     	; 0x22da <__divsf3_pse+0x78>
    22e8:	88 0f       	add	r24, r24
    22ea:	91 1d       	adc	r25, r1
    22ec:	96 95       	lsr	r25
    22ee:	87 95       	ror	r24
    22f0:	97 f9       	bld	r25, 7
    22f2:	08 95       	ret
    22f4:	e1 e0       	ldi	r30, 0x01	; 1
    22f6:	66 0f       	add	r22, r22
    22f8:	77 1f       	adc	r23, r23
    22fa:	88 1f       	adc	r24, r24
    22fc:	bb 1f       	adc	r27, r27
    22fe:	62 17       	cp	r22, r18
    2300:	73 07       	cpc	r23, r19
    2302:	84 07       	cpc	r24, r20
    2304:	ba 07       	cpc	r27, r26
    2306:	20 f0       	brcs	.+8      	; 0x2310 <__divsf3_pse+0xae>
    2308:	62 1b       	sub	r22, r18
    230a:	73 0b       	sbc	r23, r19
    230c:	84 0b       	sbc	r24, r20
    230e:	ba 0b       	sbc	r27, r26
    2310:	ee 1f       	adc	r30, r30
    2312:	88 f7       	brcc	.-30     	; 0x22f6 <__divsf3_pse+0x94>
    2314:	e0 95       	com	r30
    2316:	08 95       	ret

Disassembly of section .text:

0000269e <__floatunsisf>:
    269e:	e8 94       	clt
    26a0:	09 c0       	rjmp	.+18     	; 0x26b4 <__floatsisf+0x12>

000026a2 <__floatsisf>:
    26a2:	97 fb       	bst	r25, 7
    26a4:	3e f4       	brtc	.+14     	; 0x26b4 <__floatsisf+0x12>
    26a6:	90 95       	com	r25
    26a8:	80 95       	com	r24
    26aa:	70 95       	com	r23
    26ac:	61 95       	neg	r22
    26ae:	7f 4f       	sbci	r23, 0xFF	; 255
    26b0:	8f 4f       	sbci	r24, 0xFF	; 255
    26b2:	9f 4f       	sbci	r25, 0xFF	; 255
    26b4:	99 23       	and	r25, r25
    26b6:	a9 f0       	breq	.+42     	; 0x26e2 <__floatsisf+0x40>
    26b8:	f9 2f       	mov	r31, r25
    26ba:	96 e9       	ldi	r25, 0x96	; 150
    26bc:	bb 27       	eor	r27, r27
    26be:	93 95       	inc	r25
    26c0:	f6 95       	lsr	r31
    26c2:	87 95       	ror	r24
    26c4:	77 95       	ror	r23
    26c6:	67 95       	ror	r22
    26c8:	b7 95       	ror	r27
    26ca:	f1 11       	cpse	r31, r1
    26cc:	f8 cf       	rjmp	.-16     	; 0x26be <__floatsisf+0x1c>
    26ce:	fa f4       	brpl	.+62     	; 0x270e <__floatsisf+0x6c>
    26d0:	bb 0f       	add	r27, r27
    26d2:	11 f4       	brne	.+4      	; 0x26d8 <__floatsisf+0x36>
    26d4:	60 ff       	sbrs	r22, 0
    26d6:	1b c0       	rjmp	.+54     	; 0x270e <__floatsisf+0x6c>
    26d8:	6f 5f       	subi	r22, 0xFF	; 255
    26da:	7f 4f       	sbci	r23, 0xFF	; 255
    26dc:	8f 4f       	sbci	r24, 0xFF	; 255
    26de:	9f 4f       	sbci	r25, 0xFF	; 255
    26e0:	16 c0       	rjmp	.+44     	; 0x270e <__floatsisf+0x6c>
    26e2:	88 23       	and	r24, r24
    26e4:	11 f0       	breq	.+4      	; 0x26ea <__floatsisf+0x48>
    26e6:	96 e9       	ldi	r25, 0x96	; 150
    26e8:	11 c0       	rjmp	.+34     	; 0x270c <__floatsisf+0x6a>
    26ea:	77 23       	and	r23, r23
    26ec:	21 f0       	breq	.+8      	; 0x26f6 <__floatsisf+0x54>
    26ee:	9e e8       	ldi	r25, 0x8E	; 142
    26f0:	87 2f       	mov	r24, r23
    26f2:	76 2f       	mov	r23, r22
    26f4:	05 c0       	rjmp	.+10     	; 0x2700 <__floatsisf+0x5e>
    26f6:	66 23       	and	r22, r22
    26f8:	71 f0       	breq	.+28     	; 0x2716 <__floatsisf+0x74>
    26fa:	96 e8       	ldi	r25, 0x86	; 134
    26fc:	86 2f       	mov	r24, r22
    26fe:	70 e0       	ldi	r23, 0x00	; 0
    2700:	60 e0       	ldi	r22, 0x00	; 0
    2702:	2a f0       	brmi	.+10     	; 0x270e <__floatsisf+0x6c>
    2704:	9a 95       	dec	r25
    2706:	66 0f       	add	r22, r22
    2708:	77 1f       	adc	r23, r23
    270a:	88 1f       	adc	r24, r24
    270c:	da f7       	brpl	.-10     	; 0x2704 <__floatsisf+0x62>
    270e:	88 0f       	add	r24, r24
    2710:	96 95       	lsr	r25
    2712:	87 95       	ror	r24
    2714:	97 f9       	bld	r25, 7
    2716:	08 95       	ret

Disassembly of section .text:

000028a6 <__fp_cmp>:
    28a6:	99 0f       	add	r25, r25
    28a8:	00 08       	sbc	r0, r0
    28aa:	55 0f       	add	r21, r21
    28ac:	aa 0b       	sbc	r26, r26
    28ae:	e0 e8       	ldi	r30, 0x80	; 128
    28b0:	fe ef       	ldi	r31, 0xFE	; 254
    28b2:	16 16       	cp	r1, r22
    28b4:	17 06       	cpc	r1, r23
    28b6:	e8 07       	cpc	r30, r24
    28b8:	f9 07       	cpc	r31, r25
    28ba:	c0 f0       	brcs	.+48     	; 0x28ec <__fp_cmp+0x46>
    28bc:	12 16       	cp	r1, r18
    28be:	13 06       	cpc	r1, r19
    28c0:	e4 07       	cpc	r30, r20
    28c2:	f5 07       	cpc	r31, r21
    28c4:	98 f0       	brcs	.+38     	; 0x28ec <__fp_cmp+0x46>
    28c6:	62 1b       	sub	r22, r18
    28c8:	73 0b       	sbc	r23, r19
    28ca:	84 0b       	sbc	r24, r20
    28cc:	95 0b       	sbc	r25, r21
    28ce:	39 f4       	brne	.+14     	; 0x28de <__fp_cmp+0x38>
    28d0:	0a 26       	eor	r0, r26
    28d2:	61 f0       	breq	.+24     	; 0x28ec <__fp_cmp+0x46>
    28d4:	23 2b       	or	r18, r19
    28d6:	24 2b       	or	r18, r20
    28d8:	25 2b       	or	r18, r21
    28da:	21 f4       	brne	.+8      	; 0x28e4 <__fp_cmp+0x3e>
    28dc:	08 95       	ret
    28de:	0a 26       	eor	r0, r26
    28e0:	09 f4       	brne	.+2      	; 0x28e4 <__fp_cmp+0x3e>
    28e2:	a1 40       	sbci	r26, 0x01	; 1
    28e4:	a6 95       	lsr	r26
    28e6:	8f ef       	ldi	r24, 0xFF	; 255
    28e8:	81 1d       	adc	r24, r1
    28ea:	81 1d       	adc	r24, r1
    28ec:	08 95       	ret

Disassembly of section .text:

00002c16 <__fp_inf>:
    2c16:	97 f9       	bld	r25, 7
    2c18:	9f 67       	ori	r25, 0x7F	; 127
    2c1a:	80 e8       	ldi	r24, 0x80	; 128
    2c1c:	70 e0       	ldi	r23, 0x00	; 0
    2c1e:	60 e0       	ldi	r22, 0x00	; 0
    2c20:	08 95       	ret

Disassembly of section .text:

00002cc8 <__fp_nan>:
    2cc8:	9f ef       	ldi	r25, 0xFF	; 255
    2cca:	80 ec       	ldi	r24, 0xC0	; 192
    2ccc:	08 95       	ret

Disassembly of section .text:

00002bd0 <__fp_pscA>:
    2bd0:	00 24       	eor	r0, r0
    2bd2:	0a 94       	dec	r0
    2bd4:	16 16       	cp	r1, r22
    2bd6:	17 06       	cpc	r1, r23
    2bd8:	18 06       	cpc	r1, r24
    2bda:	09 06       	cpc	r0, r25
    2bdc:	08 95       	ret

Disassembly of section .text:

00002bde <__fp_pscB>:
    2bde:	00 24       	eor	r0, r0
    2be0:	0a 94       	dec	r0
    2be2:	12 16       	cp	r1, r18
    2be4:	13 06       	cpc	r1, r19
    2be6:	14 06       	cpc	r1, r20
    2be8:	05 06       	cpc	r0, r21
    2bea:	08 95       	ret

Disassembly of section .text:

00002b2c <__fp_round>:
    2b2c:	09 2e       	mov	r0, r25
    2b2e:	03 94       	inc	r0
    2b30:	00 0c       	add	r0, r0
    2b32:	11 f4       	brne	.+4      	; 0x2b38 <__fp_round+0xc>
    2b34:	88 23       	and	r24, r24
    2b36:	52 f0       	brmi	.+20     	; 0x2b4c <__fp_round+0x20>
    2b38:	bb 0f       	add	r27, r27
    2b3a:	40 f4       	brcc	.+16     	; 0x2b4c <__fp_round+0x20>
    2b3c:	bf 2b       	or	r27, r31
    2b3e:	11 f4       	brne	.+4      	; 0x2b44 <__fp_round+0x18>
    2b40:	60 ff       	sbrs	r22, 0
    2b42:	04 c0       	rjmp	.+8      	; 0x2b4c <__fp_round+0x20>
    2b44:	6f 5f       	subi	r22, 0xFF	; 255
    2b46:	7f 4f       	sbci	r23, 0xFF	; 255
    2b48:	8f 4f       	sbci	r24, 0xFF	; 255
    2b4a:	9f 4f       	sbci	r25, 0xFF	; 255
    2b4c:	08 95       	ret

Disassembly of section .text:

00002978 <__fp_split3>:
    2978:	57 fd       	sbrc	r21, 7
    297a:	90 58       	subi	r25, 0x80	; 128
    297c:	44 0f       	add	r20, r20
    297e:	55 1f       	adc	r21, r21
    2980:	59 f0       	breq	.+22     	; 0x2998 <__fp_splitA+0x10>
    2982:	5f 3f       	cpi	r21, 0xFF	; 255
    2984:	71 f0       	breq	.+28     	; 0x29a2 <__fp_splitA+0x1a>
    2986:	47 95       	ror	r20

00002988 <__fp_splitA>:
    2988:	88 0f       	add	r24, r24
    298a:	97 fb       	bst	r25, 7
    298c:	99 1f       	adc	r25, r25
    298e:	61 f0       	breq	.+24     	; 0x29a8 <__fp_splitA+0x20>
    2990:	9f 3f       	cpi	r25, 0xFF	; 255
    2992:	79 f0       	breq	.+30     	; 0x29b2 <__fp_splitA+0x2a>
    2994:	87 95       	ror	r24
    2996:	08 95       	ret
    2998:	12 16       	cp	r1, r18
    299a:	13 06       	cpc	r1, r19
    299c:	14 06       	cpc	r1, r20
    299e:	55 1f       	adc	r21, r21
    29a0:	f2 cf       	rjmp	.-28     	; 0x2986 <__fp_split3+0xe>
    29a2:	46 95       	lsr	r20
    29a4:	f1 df       	rcall	.-30     	; 0x2988 <__fp_splitA>
    29a6:	08 c0       	rjmp	.+16     	; 0x29b8 <__fp_splitA+0x30>
    29a8:	16 16       	cp	r1, r22
    29aa:	17 06       	cpc	r1, r23
    29ac:	18 06       	cpc	r1, r24
    29ae:	99 1f       	adc	r25, r25
    29b0:	f1 cf       	rjmp	.-30     	; 0x2994 <__fp_splitA+0xc>
    29b2:	86 95       	lsr	r24
    29b4:	71 05       	cpc	r23, r1
    29b6:	61 05       	cpc	r22, r1
    29b8:	08 94       	sec
    29ba:	08 95       	ret

Disassembly of section .text:

00002bec <__fp_zero>:
    2bec:	e8 94       	clt

00002bee <__fp_szero>:
    2bee:	bb 27       	eor	r27, r27
    2bf0:	66 27       	eor	r22, r22
    2bf2:	77 27       	eor	r23, r23
    2bf4:	cb 01       	movw	r24, r22
    2bf6:	97 f9       	bld	r25, 7
    2bf8:	08 95       	ret

Disassembly of section .text:

00002cc0 <__mulsf3>:
    2cc0:	0e 94 8c 11 	call	0x2318	; 0x2318 <__mulsf3x>
    2cc4:	0c 94 96 15 	jmp	0x2b2c	; 0x2b2c <__fp_round>

Disassembly of section .text:

00002318 <__mulsf3x>:
    2318:	0f c0       	rjmp	.+30     	; 0x2338 <__mulsf3x+0x20>
    231a:	0e 94 e8 15 	call	0x2bd0	; 0x2bd0 <__fp_pscA>
    231e:	38 f0       	brcs	.+14     	; 0x232e <__mulsf3x+0x16>
    2320:	0e 94 ef 15 	call	0x2bde	; 0x2bde <__fp_pscB>
    2324:	20 f0       	brcs	.+8      	; 0x232e <__mulsf3x+0x16>
    2326:	95 23       	and	r25, r21
    2328:	11 f0       	breq	.+4      	; 0x232e <__mulsf3x+0x16>
    232a:	0c 94 0b 16 	jmp	0x2c16	; 0x2c16 <__fp_inf>
    232e:	0c 94 64 16 	jmp	0x2cc8	; 0x2cc8 <__fp_nan>
    2332:	11 24       	eor	r1, r1
    2334:	0c 94 f7 15 	jmp	0x2bee	; 0x2bee <__fp_szero>
    2338:	0e 94 bc 14 	call	0x2978	; 0x2978 <__fp_split3>
    233c:	70 f3       	brcs	.-36     	; 0x231a <__mulsf3x+0x2>

0000233e <__mulsf3_pse>:
    233e:	95 9f       	mul	r25, r21
    2340:	c1 f3       	breq	.-16     	; 0x2332 <__mulsf3x+0x1a>
    2342:	95 0f       	add	r25, r21
    2344:	50 e0       	ldi	r21, 0x00	; 0
    2346:	55 1f       	adc	r21, r21
    2348:	62 9f       	mul	r22, r18
    234a:	f0 01       	movw	r30, r0
    234c:	72 9f       	mul	r23, r18
    234e:	bb 27       	eor	r27, r27
    2350:	f0 0d       	add	r31, r0
    2352:	b1 1d       	adc	r27, r1
    2354:	63 9f       	mul	r22, r19
    2356:	aa 27       	eor	r26, r26
    2358:	f0 0d       	add	r31, r0
    235a:	b1 1d       	adc	r27, r1
    235c:	aa 1f       	adc	r26, r26
    235e:	64 9f       	mul	r22, r20
    2360:	66 27       	eor	r22, r22
    2362:	b0 0d       	add	r27, r0
    2364:	a1 1d       	adc	r26, r1
    2366:	66 1f       	adc	r22, r22
    2368:	82 9f       	mul	r24, r18
    236a:	22 27       	eor	r18, r18
    236c:	b0 0d       	add	r27, r0
    236e:	a1 1d       	adc	r26, r1
    2370:	62 1f       	adc	r22, r18
    2372:	73 9f       	mul	r23, r19
    2374:	b0 0d       	add	r27, r0
    2376:	a1 1d       	adc	r26, r1
    2378:	62 1f       	adc	r22, r18
    237a:	83 9f       	mul	r24, r19
    237c:	a0 0d       	add	r26, r0
    237e:	61 1d       	adc	r22, r1
    2380:	22 1f       	adc	r18, r18
    2382:	74 9f       	mul	r23, r20
    2384:	33 27       	eor	r19, r19
    2386:	a0 0d       	add	r26, r0
    2388:	61 1d       	adc	r22, r1
    238a:	23 1f       	adc	r18, r19
    238c:	84 9f       	mul	r24, r20
    238e:	60 0d       	add	r22, r0
    2390:	21 1d       	adc	r18, r1
    2392:	82 2f       	mov	r24, r18
    2394:	76 2f       	mov	r23, r22
    2396:	6a 2f       	mov	r22, r26
    2398:	11 24       	eor	r1, r1
    239a:	9f 57       	subi	r25, 0x7F	; 127
    239c:	50 40       	sbci	r21, 0x00	; 0
    239e:	9a f0       	brmi	.+38     	; 0x23c6 <__mulsf3_pse+0x88>
    23a0:	f1 f0       	breq	.+60     	; 0x23de <__mulsf3_pse+0xa0>
    23a2:	88 23       	and	r24, r24
    23a4:	4a f0       	brmi	.+18     	; 0x23b8 <__mulsf3_pse+0x7a>
    23a6:	ee 0f       	add	r30, r30
    23a8:	ff 1f       	adc	r31, r31
    23aa:	bb 1f       	adc	r27, r27
    23ac:	66 1f       	adc	r22, r22
    23ae:	77 1f       	adc	r23, r23
    23b0:	88 1f       	adc	r24, r24
    23b2:	91 50       	subi	r25, 0x01	; 1
    23b4:	50 40       	sbci	r21, 0x00	; 0
    23b6:	a9 f7       	brne	.-22     	; 0x23a2 <__mulsf3_pse+0x64>
    23b8:	9e 3f       	cpi	r25, 0xFE	; 254
    23ba:	51 05       	cpc	r21, r1
    23bc:	80 f0       	brcs	.+32     	; 0x23de <__mulsf3_pse+0xa0>
    23be:	0c 94 0b 16 	jmp	0x2c16	; 0x2c16 <__fp_inf>
    23c2:	0c 94 f7 15 	jmp	0x2bee	; 0x2bee <__fp_szero>
    23c6:	5f 3f       	cpi	r21, 0xFF	; 255
    23c8:	e4 f3       	brlt	.-8      	; 0x23c2 <__mulsf3_pse+0x84>
    23ca:	98 3e       	cpi	r25, 0xE8	; 232
    23cc:	d4 f3       	brlt	.-12     	; 0x23c2 <__mulsf3_pse+0x84>
    23ce:	86 95       	lsr	r24
    23d0:	77 95       	ror	r23
    23d2:	67 95       	ror	r22
    23d4:	b7 95       	ror	r27
    23d6:	f7 95       	ror	r31
    23d8:	e7 95       	ror	r30
    23da:	9f 5f       	subi	r25, 0xFF	; 255
    23dc:	c1 f7       	brne	.-16     	; 0x23ce <__mulsf3_pse+0x90>
    23de:	fe 2b       	or	r31, r30
    23e0:	88 0f       	add	r24, r24
    23e2:	91 1d       	adc	r25, r1
    23e4:	96 95       	lsr	r25
    23e6:	87 95       	ror	r24
    23e8:	97 f9       	bld	r25, 7
    23ea:	08 95       	ret

Disassembly of section .text.cosf:

00001c64 <cosf>:
    1c64:	a4 e0       	ldi	r26, 0x04	; 4
    1c66:	b0 e0       	ldi	r27, 0x00	; 0
    1c68:	e8 e3       	ldi	r30, 0x38	; 56
    1c6a:	fe e0       	ldi	r31, 0x0E	; 14
    1c6c:	0c 94 e8 14 	jmp	0x29d0	; 0x29d0 <__prologue_saves__+0x14>
    1c70:	8b 01       	movw	r16, r22
    1c72:	9c 01       	movw	r18, r24
    1c74:	3f 77       	andi	r19, 0x7F	; 127
    1c76:	0b 3d       	cpi	r16, 0xDB	; 219
    1c78:	4f e0       	ldi	r20, 0x0F	; 15
    1c7a:	14 07       	cpc	r17, r20
    1c7c:	49 e4       	ldi	r20, 0x49	; 73
    1c7e:	24 07       	cpc	r18, r20
    1c80:	4f e3       	ldi	r20, 0x3F	; 63
    1c82:	34 07       	cpc	r19, r20
    1c84:	b8 f4       	brcc	.+46     	; 0x1cb4 <cosf+0x50>
    1c86:	01 15       	cp	r16, r1
    1c88:	11 05       	cpc	r17, r1
    1c8a:	40 e8       	ldi	r20, 0x80	; 128
    1c8c:	24 07       	cpc	r18, r20
    1c8e:	49 e3       	ldi	r20, 0x39	; 57
    1c90:	34 07       	cpc	r19, r20
    1c92:	08 f0       	brcs	.+2      	; 0x1c96 <cosf+0x32>
    1c94:	8d c0       	rjmp	.+282    	; 0x1db0 <cosf+0x14c>
    1c96:	20 e0       	ldi	r18, 0x00	; 0
    1c98:	30 e0       	ldi	r19, 0x00	; 0
    1c9a:	40 e8       	ldi	r20, 0x80	; 128
    1c9c:	5b e7       	ldi	r21, 0x7B	; 123
    1c9e:	0e 94 fe 15 	call	0x2bfc	; 0x2bfc <__addsf3>
    1ca2:	69 83       	std	Y+1, r22	; 0x01
    1ca4:	7a 83       	std	Y+2, r23	; 0x02
    1ca6:	8b 83       	std	Y+3, r24	; 0x03
    1ca8:	9c 83       	std	Y+4, r25	; 0x04
    1caa:	60 e0       	ldi	r22, 0x00	; 0
    1cac:	70 e0       	ldi	r23, 0x00	; 0
    1cae:	80 e8       	ldi	r24, 0x80	; 128
    1cb0:	9f e3       	ldi	r25, 0x3F	; 63
    1cb2:	89 c0       	rjmp	.+274    	; 0x1dc6 <cosf+0x162>
    1cb4:	6b 01       	movw	r12, r22
    1cb6:	7c 01       	movw	r14, r24
    1cb8:	cc 24       	eor	r12, r12
    1cba:	f7 fc       	sbrc	r15, 7
    1cbc:	c3 94       	inc	r12
    1cbe:	dd 24       	eor	r13, r13
    1cc0:	ee 24       	eor	r14, r14
    1cc2:	ff 24       	eor	r15, r15
    1cc4:	02 3d       	cpi	r16, 0xD2	; 210
    1cc6:	43 e5       	ldi	r20, 0x53	; 83
    1cc8:	14 07       	cpc	r17, r20
    1cca:	4b e7       	ldi	r20, 0x7B	; 123
    1ccc:	24 07       	cpc	r18, r20
    1cce:	40 e4       	ldi	r20, 0x40	; 64
    1cd0:	34 07       	cpc	r19, r20
    1cd2:	30 f5       	brcc	.+76     	; 0x1d20 <cosf+0xbc>
    1cd4:	04 3e       	cpi	r16, 0xE4	; 228
    1cd6:	4b ec       	ldi	r20, 0xCB	; 203
    1cd8:	14 07       	cpc	r17, r20
    1cda:	46 e1       	ldi	r20, 0x16	; 22
    1cdc:	24 07       	cpc	r18, r20
    1cde:	40 e4       	ldi	r20, 0x40	; 64
    1ce0:	34 07       	cpc	r19, r20
    1ce2:	68 f0       	brcs	.+26     	; 0x1cfe <cosf+0x9a>
    1ce4:	2b ed       	ldi	r18, 0xDB	; 219
    1ce6:	3f e0       	ldi	r19, 0x0F	; 15
    1ce8:	49 e4       	ldi	r20, 0x49	; 73
    1cea:	50 e4       	ldi	r21, 0x40	; 64
    1cec:	c1 14       	cp	r12, r1
    1cee:	d1 04       	cpc	r13, r1
    1cf0:	19 f0       	breq	.+6      	; 0x1cf8 <cosf+0x94>
    1cf2:	0e 94 fe 15 	call	0x2bfc	; 0x2bfc <__addsf3>
    1cf6:	61 c0       	rjmp	.+194    	; 0x1dba <cosf+0x156>
    1cf8:	0e 94 fd 15 	call	0x2bfa	; 0x2bfa <__subsf3>
    1cfc:	5e c0       	rjmp	.+188    	; 0x1dba <cosf+0x156>
    1cfe:	c1 14       	cp	r12, r1
    1d00:	d1 04       	cpc	r13, r1
    1d02:	39 f0       	breq	.+14     	; 0x1d12 <cosf+0xae>
    1d04:	2b ed       	ldi	r18, 0xDB	; 219
    1d06:	3f e0       	ldi	r19, 0x0F	; 15
    1d08:	49 ec       	ldi	r20, 0xC9	; 201
    1d0a:	5f e3       	ldi	r21, 0x3F	; 63
    1d0c:	0e 94 fe 15 	call	0x2bfc	; 0x2bfc <__addsf3>
    1d10:	58 c0       	rjmp	.+176    	; 0x1dc2 <cosf+0x15e>
    1d12:	9b 01       	movw	r18, r22
    1d14:	ac 01       	movw	r20, r24
    1d16:	6b ed       	ldi	r22, 0xDB	; 219
    1d18:	7f e0       	ldi	r23, 0x0F	; 15
    1d1a:	89 ec       	ldi	r24, 0xC9	; 201
    1d1c:	9f e3       	ldi	r25, 0x3F	; 63
    1d1e:	25 c0       	rjmp	.+74     	; 0x1d6a <cosf+0x106>
    1d20:	06 3d       	cpi	r16, 0xD6	; 214
    1d22:	41 e3       	ldi	r20, 0x31	; 49
    1d24:	14 07       	cpc	r17, r20
    1d26:	42 ee       	ldi	r20, 0xE2	; 226
    1d28:	24 07       	cpc	r18, r20
    1d2a:	40 e4       	ldi	r20, 0x40	; 64
    1d2c:	34 07       	cpc	r19, r20
    1d2e:	00 f5       	brcc	.+64     	; 0x1d70 <cosf+0x10c>
    1d30:	00 3e       	cpi	r16, 0xE0	; 224
    1d32:	4d ee       	ldi	r20, 0xED	; 237
    1d34:	14 07       	cpc	r17, r20
    1d36:	4f ea       	ldi	r20, 0xAF	; 175
    1d38:	24 07       	cpc	r18, r20
    1d3a:	40 e4       	ldi	r20, 0x40	; 64
    1d3c:	34 07       	cpc	r19, r20
    1d3e:	68 f0       	brcs	.+26     	; 0x1d5a <cosf+0xf6>
    1d40:	2b ed       	ldi	r18, 0xDB	; 219
    1d42:	3f e0       	ldi	r19, 0x0F	; 15
    1d44:	49 ec       	ldi	r20, 0xC9	; 201
    1d46:	50 e4       	ldi	r21, 0x40	; 64
    1d48:	c1 14       	cp	r12, r1
    1d4a:	d1 04       	cpc	r13, r1
    1d4c:	19 f0       	breq	.+6      	; 0x1d54 <cosf+0xf0>
    1d4e:	0e 94 fe 15 	call	0x2bfc	; 0x2bfc <__addsf3>
    1d52:	2e c0       	rjmp	.+92     	; 0x1db0 <cosf+0x14c>
    1d54:	0e 94 fd 15 	call	0x2bfa	; 0x2bfa <__subsf3>
    1d58:	2b c0       	rjmp	.+86     	; 0x1db0 <cosf+0x14c>
    1d5a:	c1 14       	cp	r12, r1
    1d5c:	d1 04       	cpc	r13, r1
    1d5e:	09 f0       	breq	.+2      	; 0x1d62 <cosf+0xfe>
    1d60:	90 58       	subi	r25, 0x80	; 128
    1d62:	24 ee       	ldi	r18, 0xE4	; 228
    1d64:	3b ec       	ldi	r19, 0xCB	; 203
    1d66:	46 e9       	ldi	r20, 0x96	; 150
    1d68:	50 e4       	ldi	r21, 0x40	; 64
    1d6a:	0e 94 fd 15 	call	0x2bfa	; 0x2bfa <__subsf3>
    1d6e:	29 c0       	rjmp	.+82     	; 0x1dc2 <cosf+0x15e>
    1d70:	01 15       	cp	r16, r1
    1d72:	11 05       	cpc	r17, r1
    1d74:	40 e8       	ldi	r20, 0x80	; 128
    1d76:	24 07       	cpc	r18, r20
    1d78:	4f e7       	ldi	r20, 0x7F	; 127
    1d7a:	34 07       	cpc	r19, r20
    1d7c:	28 f0       	brcs	.+10     	; 0x1d88 <cosf+0x124>
    1d7e:	9b 01       	movw	r18, r22
    1d80:	ac 01       	movw	r20, r24
    1d82:	0e 94 fd 15 	call	0x2bfa	; 0x2bfa <__subsf3>
    1d86:	1f c0       	rjmp	.+62     	; 0x1dc6 <cosf+0x162>
    1d88:	ae 01       	movw	r20, r28
    1d8a:	4f 5f       	subi	r20, 0xFF	; 255
    1d8c:	5f 4f       	sbci	r21, 0xFF	; 255
    1d8e:	0e 94 64 0d 	call	0x1ac8	; 0x1ac8 <__rem_pio2f>
    1d92:	9c 01       	movw	r18, r24
    1d94:	23 70       	andi	r18, 0x03	; 3
    1d96:	33 27       	eor	r19, r19
    1d98:	69 81       	ldd	r22, Y+1	; 0x01
    1d9a:	7a 81       	ldd	r23, Y+2	; 0x02
    1d9c:	8b 81       	ldd	r24, Y+3	; 0x03
    1d9e:	9c 81       	ldd	r25, Y+4	; 0x04
    1da0:	21 30       	cpi	r18, 0x01	; 1
    1da2:	31 05       	cpc	r19, r1
    1da4:	41 f0       	breq	.+16     	; 0x1db6 <cosf+0x152>
    1da6:	22 30       	cpi	r18, 0x02	; 2
    1da8:	31 05       	cpc	r19, r1
    1daa:	39 f0       	breq	.+14     	; 0x1dba <cosf+0x156>
    1dac:	23 2b       	or	r18, r19
    1dae:	49 f4       	brne	.+18     	; 0x1dc2 <cosf+0x15e>
    1db0:	0e 94 a6 10 	call	0x214c	; 0x214c <__cosdf>
    1db4:	08 c0       	rjmp	.+16     	; 0x1dc6 <cosf+0x162>
    1db6:	90 58       	subi	r25, 0x80	; 128
    1db8:	04 c0       	rjmp	.+8      	; 0x1dc2 <cosf+0x15e>
    1dba:	0e 94 a6 10 	call	0x214c	; 0x214c <__cosdf>
    1dbe:	90 58       	subi	r25, 0x80	; 128
    1dc0:	02 c0       	rjmp	.+4      	; 0x1dc6 <cosf+0x162>
    1dc2:	0e 94 2d 10 	call	0x205a	; 0x205a <__sindf>
    1dc6:	24 96       	adiw	r28, 0x04	; 4
    1dc8:	e8 e0       	ldi	r30, 0x08	; 8
    1dca:	0c 94 04 15 	jmp	0x2a08	; 0x2a08 <__epilogue_restores__+0x14>

Disassembly of section .text.lrintf:

00002c9c <lrintf>:
    2c9c:	0e 94 5d 12 	call	0x24ba	; 0x24ba <rintf>
    2ca0:	0e 94 04 16 	call	0x2c08	; 0x2c08 <__fixsfsi>
    2ca4:	08 95       	ret

Disassembly of section .text.rintf:

000024ba <rintf>:
    24ba:	ef 92       	push	r14
    24bc:	ff 92       	push	r15
    24be:	0f 93       	push	r16
    24c0:	1f 93       	push	r17
    24c2:	cf 93       	push	r28
    24c4:	df 93       	push	r29
    24c6:	8b 01       	movw	r16, r22
    24c8:	9c 01       	movw	r18, r24
    24ca:	57 e1       	ldi	r21, 0x17	; 23
    24cc:	36 95       	lsr	r19
    24ce:	27 95       	ror	r18
    24d0:	17 95       	ror	r17
    24d2:	07 95       	ror	r16
    24d4:	5a 95       	dec	r21
    24d6:	d1 f7       	brne	.-12     	; 0x24cc <rintf+0x12>
    24d8:	11 27       	eor	r17, r17
    24da:	06 39       	cpi	r16, 0x96	; 150
    24dc:	11 05       	cpc	r17, r1
    24de:	9c f5       	brge	.+102    	; 0x2546 <rintf+0x8c>
    24e0:	8b 01       	movw	r16, r22
    24e2:	9c 01       	movw	r18, r24
    24e4:	00 27       	eor	r16, r16
    24e6:	37 fd       	sbrc	r19, 7
    24e8:	03 95       	inc	r16
    24ea:	11 27       	eor	r17, r17
    24ec:	22 27       	eor	r18, r18
    24ee:	33 27       	eor	r19, r19
    24f0:	78 01       	movw	r14, r16
    24f2:	20 e0       	ldi	r18, 0x00	; 0
    24f4:	30 e0       	ldi	r19, 0x00	; 0
    24f6:	40 e0       	ldi	r20, 0x00	; 0
    24f8:	5b e4       	ldi	r21, 0x4B	; 75
    24fa:	e1 14       	cp	r14, r1
    24fc:	f1 04       	cpc	r15, r1
    24fe:	49 f0       	breq	.+18     	; 0x2512 <rintf+0x58>
    2500:	0e 94 fd 15 	call	0x2bfa	; 0x2bfa <__subsf3>
    2504:	20 e0       	ldi	r18, 0x00	; 0
    2506:	30 e0       	ldi	r19, 0x00	; 0
    2508:	40 e0       	ldi	r20, 0x00	; 0
    250a:	5b e4       	ldi	r21, 0x4B	; 75
    250c:	0e 94 fe 15 	call	0x2bfc	; 0x2bfc <__addsf3>
    2510:	08 c0       	rjmp	.+16     	; 0x2522 <rintf+0x68>
    2512:	0e 94 fe 15 	call	0x2bfc	; 0x2bfc <__addsf3>
    2516:	20 e0       	ldi	r18, 0x00	; 0
    2518:	30 e0       	ldi	r19, 0x00	; 0
    251a:	40 e0       	ldi	r20, 0x00	; 0
    251c:	5b e4       	ldi	r21, 0x4B	; 75
    251e:	0e 94 fd 15 	call	0x2bfa	; 0x2bfa <__subsf3>
    2522:	8b 01       	movw	r16, r22
    2524:	d8 2f       	mov	r29, r24
    2526:	c9 2f       	mov	r28, r25
    2528:	20 e0       	ldi	r18, 0x00	; 0
    252a:	30 e0       	ldi	r19, 0x00	; 0
    252c:	a9 01       	movw	r20, r18
    252e:	0e 94 49 16 	call	0x2c92	; 0x2c92 <__cmpsf2>
    2532:	81 11       	cpse	r24, r1
    2534:	0d c0       	rjmp	.+26     	; 0x2550 <rintf+0x96>
    2536:	40 e0       	ldi	r20, 0x00	; 0
    2538:	30 e0       	ldi	r19, 0x00	; 0
    253a:	20 e0       	ldi	r18, 0x00	; 0
    253c:	e1 14       	cp	r14, r1
    253e:	f1 04       	cpc	r15, r1
    2540:	61 f4       	brne	.+24     	; 0x255a <rintf+0xa0>
    2542:	50 e0       	ldi	r21, 0x00	; 0
    2544:	0b c0       	rjmp	.+22     	; 0x255c <rintf+0xa2>
    2546:	46 2f       	mov	r20, r22
    2548:	37 2f       	mov	r19, r23
    254a:	28 2f       	mov	r18, r24
    254c:	59 2f       	mov	r21, r25
    254e:	06 c0       	rjmp	.+12     	; 0x255c <rintf+0xa2>
    2550:	40 2f       	mov	r20, r16
    2552:	31 2f       	mov	r19, r17
    2554:	2d 2f       	mov	r18, r29
    2556:	5c 2f       	mov	r21, r28
    2558:	01 c0       	rjmp	.+2      	; 0x255c <rintf+0xa2>
    255a:	50 e8       	ldi	r21, 0x80	; 128
    255c:	64 2f       	mov	r22, r20
    255e:	73 2f       	mov	r23, r19
    2560:	82 2f       	mov	r24, r18
    2562:	95 2f       	mov	r25, r21
    2564:	cd b7       	in	r28, 0x3d	; 61
    2566:	de b7       	in	r29, 0x3e	; 62
    2568:	e6 e0       	ldi	r30, 0x06	; 6
    256a:	0c 94 06 15 	jmp	0x2a0c	; 0x2a0c <__epilogue_restores__+0x18>

Disassembly of section .text.sinf:

000018fe <sinf>:
    18fe:	cf 92       	push	r12
    1900:	df 92       	push	r13
    1902:	ef 92       	push	r14
    1904:	ff 92       	push	r15
    1906:	cf 93       	push	r28
    1908:	df 93       	push	r29
    190a:	00 d0       	rcall	.+0      	; 0x190c <sinf+0xe>
    190c:	00 d0       	rcall	.+0      	; 0x190e <sinf+0x10>
    190e:	cd b7       	in	r28, 0x3d	; 61
    1910:	de b7       	in	r29, 0x3e	; 62
    1912:	6b 01       	movw	r12, r22
    1914:	7c 01       	movw	r14, r24
    1916:	dc 01       	movw	r26, r24
    1918:	cb 01       	movw	r24, r22
    191a:	bf 77       	andi	r27, 0x7F	; 127
    191c:	8b 3d       	cpi	r24, 0xDB	; 219
    191e:	2f e0       	ldi	r18, 0x0F	; 15
    1920:	92 07       	cpc	r25, r18
    1922:	29 e4       	ldi	r18, 0x49	; 73
    1924:	a2 07       	cpc	r26, r18
    1926:	2f e3       	ldi	r18, 0x3F	; 63
    1928:	b2 07       	cpc	r27, r18
    192a:	28 f5       	brcc	.+74     	; 0x1976 <sinf+0x78>
    192c:	00 97       	sbiw	r24, 0x00	; 0
    192e:	20 e8       	ldi	r18, 0x80	; 128
    1930:	a2 07       	cpc	r26, r18
    1932:	29 e3       	ldi	r18, 0x39	; 57
    1934:	b2 07       	cpc	r27, r18
    1936:	e0 f4       	brcc	.+56     	; 0x1970 <sinf+0x72>
    1938:	00 97       	sbiw	r24, 0x00	; 0
    193a:	a0 48       	sbci	r26, 0x80	; 128
    193c:	b1 05       	cpc	r27, r1
    193e:	48 f4       	brcc	.+18     	; 0x1952 <sinf+0x54>
    1940:	20 e0       	ldi	r18, 0x00	; 0
    1942:	30 e0       	ldi	r19, 0x00	; 0
    1944:	40 e8       	ldi	r20, 0x80	; 128
    1946:	53 e0       	ldi	r21, 0x03	; 3
    1948:	c7 01       	movw	r24, r14
    194a:	b6 01       	movw	r22, r12
    194c:	0e 94 60 16 	call	0x2cc0	; 0x2cc0 <__mulsf3>
    1950:	08 c0       	rjmp	.+16     	; 0x1962 <sinf+0x64>
    1952:	20 e0       	ldi	r18, 0x00	; 0
    1954:	30 e0       	ldi	r19, 0x00	; 0
    1956:	40 e8       	ldi	r20, 0x80	; 128
    1958:	5b e7       	ldi	r21, 0x7B	; 123
    195a:	c7 01       	movw	r24, r14
    195c:	b6 01       	movw	r22, r12
    195e:	0e 94 fe 15 	call	0x2bfc	; 0x2bfc <__addsf3>
    1962:	69 83       	std	Y+1, r22	; 0x01
    1964:	7a 83       	std	Y+2, r23	; 0x02
    1966:	8b 83       	std	Y+3, r24	; 0x03
    1968:	9c 83       	std	Y+4, r25	; 0x04
    196a:	c7 01       	movw	r24, r14
    196c:	b6 01       	movw	r22, r12
    196e:	a1 c0       	rjmp	.+322    	; 0x1ab2 <sinf+0x1b4>
    1970:	c7 01       	movw	r24, r14
    1972:	b6 01       	movw	r22, r12
    1974:	98 c0       	rjmp	.+304    	; 0x1aa6 <sinf+0x1a8>
    1976:	b7 01       	movw	r22, r14
    1978:	a6 01       	movw	r20, r12
    197a:	44 27       	eor	r20, r20
    197c:	77 fd       	sbrc	r23, 7
    197e:	43 95       	inc	r20
    1980:	55 27       	eor	r21, r21
    1982:	66 27       	eor	r22, r22
    1984:	77 27       	eor	r23, r23
    1986:	82 3d       	cpi	r24, 0xD2	; 210
    1988:	23 e5       	ldi	r18, 0x53	; 83
    198a:	92 07       	cpc	r25, r18
    198c:	2b e7       	ldi	r18, 0x7B	; 123
    198e:	a2 07       	cpc	r26, r18
    1990:	20 e4       	ldi	r18, 0x40	; 64
    1992:	b2 07       	cpc	r27, r18
    1994:	68 f5       	brcc	.+90     	; 0x19f0 <sinf+0xf2>
    1996:	84 3e       	cpi	r24, 0xE4	; 228
    1998:	9b 4c       	sbci	r25, 0xCB	; 203
    199a:	a6 41       	sbci	r26, 0x16	; 22
    199c:	b0 44       	sbci	r27, 0x40	; 64
    199e:	a0 f4       	brcc	.+40     	; 0x19c8 <sinf+0xca>
    19a0:	45 2b       	or	r20, r21
    19a2:	49 f0       	breq	.+18     	; 0x19b6 <sinf+0xb8>
    19a4:	2b ed       	ldi	r18, 0xDB	; 219
    19a6:	3f e0       	ldi	r19, 0x0F	; 15
    19a8:	49 ec       	ldi	r20, 0xC9	; 201
    19aa:	5f e3       	ldi	r21, 0x3F	; 63
    19ac:	c7 01       	movw	r24, r14
    19ae:	b6 01       	movw	r22, r12
    19b0:	0e 94 fe 15 	call	0x2bfc	; 0x2bfc <__addsf3>
    19b4:	7b c0       	rjmp	.+246    	; 0x1aac <sinf+0x1ae>
    19b6:	2b ed       	ldi	r18, 0xDB	; 219
    19b8:	3f e0       	ldi	r19, 0x0F	; 15
    19ba:	49 ec       	ldi	r20, 0xC9	; 201
    19bc:	5f e3       	ldi	r21, 0x3F	; 63
    19be:	c7 01       	movw	r24, r14
    19c0:	b6 01       	movw	r22, r12
    19c2:	0e 94 fd 15 	call	0x2bfa	; 0x2bfa <__subsf3>
    19c6:	6b c0       	rjmp	.+214    	; 0x1a9e <sinf+0x1a0>
    19c8:	45 2b       	or	r20, r21
    19ca:	49 f0       	breq	.+18     	; 0x19de <sinf+0xe0>
    19cc:	2b ed       	ldi	r18, 0xDB	; 219
    19ce:	3f e0       	ldi	r19, 0x0F	; 15
    19d0:	49 e4       	ldi	r20, 0x49	; 73
    19d2:	50 e4       	ldi	r21, 0x40	; 64
    19d4:	c7 01       	movw	r24, r14
    19d6:	b6 01       	movw	r22, r12
    19d8:	0e 94 fe 15 	call	0x2bfc	; 0x2bfc <__addsf3>
    19dc:	63 c0       	rjmp	.+198    	; 0x1aa4 <sinf+0x1a6>
    19de:	2b ed       	ldi	r18, 0xDB	; 219
    19e0:	3f e0       	ldi	r19, 0x0F	; 15
    19e2:	49 e4       	ldi	r20, 0x49	; 73
    19e4:	50 e4       	ldi	r21, 0x40	; 64
    19e6:	c7 01       	movw	r24, r14
    19e8:	b6 01       	movw	r22, r12
    19ea:	0e 94 fd 15 	call	0x2bfa	; 0x2bfa <__subsf3>
    19ee:	5a c0       	rjmp	.+180    	; 0x1aa4 <sinf+0x1a6>
    19f0:	86 3d       	cpi	r24, 0xD6	; 214
    19f2:	21 e3       	ldi	r18, 0x31	; 49
    19f4:	92 07       	cpc	r25, r18
    19f6:	22 ee       	ldi	r18, 0xE2	; 226
    19f8:	a2 07       	cpc	r26, r18
    19fa:	20 e4       	ldi	r18, 0x40	; 64
    19fc:	b2 07       	cpc	r27, r18
    19fe:	68 f5       	brcc	.+90     	; 0x1a5a <sinf+0x15c>
    1a00:	80 3e       	cpi	r24, 0xE0	; 224
    1a02:	9d 4e       	sbci	r25, 0xED	; 237
    1a04:	af 4a       	sbci	r26, 0xAF	; 175
    1a06:	b0 44       	sbci	r27, 0x40	; 64
    1a08:	a0 f4       	brcc	.+40     	; 0x1a32 <sinf+0x134>
    1a0a:	45 2b       	or	r20, r21
    1a0c:	49 f0       	breq	.+18     	; 0x1a20 <sinf+0x122>
    1a0e:	24 ee       	ldi	r18, 0xE4	; 228
    1a10:	3b ec       	ldi	r19, 0xCB	; 203
    1a12:	46 e9       	ldi	r20, 0x96	; 150
    1a14:	50 e4       	ldi	r21, 0x40	; 64
    1a16:	c7 01       	movw	r24, r14
    1a18:	b6 01       	movw	r22, r12
    1a1a:	0e 94 fe 15 	call	0x2bfc	; 0x2bfc <__addsf3>
    1a1e:	3f c0       	rjmp	.+126    	; 0x1a9e <sinf+0x1a0>
    1a20:	24 ee       	ldi	r18, 0xE4	; 228
    1a22:	3b ec       	ldi	r19, 0xCB	; 203
    1a24:	46 e9       	ldi	r20, 0x96	; 150
    1a26:	50 e4       	ldi	r21, 0x40	; 64
    1a28:	c7 01       	movw	r24, r14
    1a2a:	b6 01       	movw	r22, r12
    1a2c:	0e 94 fd 15 	call	0x2bfa	; 0x2bfa <__subsf3>
    1a30:	3d c0       	rjmp	.+122    	; 0x1aac <sinf+0x1ae>
    1a32:	45 2b       	or	r20, r21
    1a34:	49 f0       	breq	.+18     	; 0x1a48 <sinf+0x14a>
    1a36:	2b ed       	ldi	r18, 0xDB	; 219
    1a38:	3f e0       	ldi	r19, 0x0F	; 15
    1a3a:	49 ec       	ldi	r20, 0xC9	; 201
    1a3c:	50 e4       	ldi	r21, 0x40	; 64
    1a3e:	c7 01       	movw	r24, r14
    1a40:	b6 01       	movw	r22, r12
    1a42:	0e 94 fe 15 	call	0x2bfc	; 0x2bfc <__addsf3>
    1a46:	2f c0       	rjmp	.+94     	; 0x1aa6 <sinf+0x1a8>
    1a48:	2b ed       	ldi	r18, 0xDB	; 219
    1a4a:	3f e0       	ldi	r19, 0x0F	; 15
    1a4c:	49 ec       	ldi	r20, 0xC9	; 201
    1a4e:	50 e4       	ldi	r21, 0x40	; 64
    1a50:	c7 01       	movw	r24, r14
    1a52:	b6 01       	movw	r22, r12
    1a54:	0e 94 fd 15 	call	0x2bfa	; 0x2bfa <__subsf3>
    1a58:	26 c0       	rjmp	.+76     	; 0x1aa6 <sinf+0x1a8>
    1a5a:	00 97       	sbiw	r24, 0x00	; 0
    1a5c:	a0 48       	sbci	r26, 0x80	; 128
    1a5e:	bf 47       	sbci	r27, 0x7F	; 127
    1a60:	38 f0       	brcs	.+14     	; 0x1a70 <sinf+0x172>
    1a62:	a7 01       	movw	r20, r14
    1a64:	96 01       	movw	r18, r12
    1a66:	c7 01       	movw	r24, r14
    1a68:	b6 01       	movw	r22, r12
    1a6a:	0e 94 fd 15 	call	0x2bfa	; 0x2bfa <__subsf3>
    1a6e:	21 c0       	rjmp	.+66     	; 0x1ab2 <sinf+0x1b4>
    1a70:	ae 01       	movw	r20, r28
    1a72:	4f 5f       	subi	r20, 0xFF	; 255
    1a74:	5f 4f       	sbci	r21, 0xFF	; 255
    1a76:	c7 01       	movw	r24, r14
    1a78:	b6 01       	movw	r22, r12
    1a7a:	0e 94 64 0d 	call	0x1ac8	; 0x1ac8 <__rem_pio2f>
    1a7e:	9c 01       	movw	r18, r24
    1a80:	23 70       	andi	r18, 0x03	; 3
    1a82:	33 27       	eor	r19, r19
    1a84:	69 81       	ldd	r22, Y+1	; 0x01
    1a86:	7a 81       	ldd	r23, Y+2	; 0x02
    1a88:	8b 81       	ldd	r24, Y+3	; 0x03
    1a8a:	9c 81       	ldd	r25, Y+4	; 0x04
    1a8c:	21 30       	cpi	r18, 0x01	; 1
    1a8e:	31 05       	cpc	r19, r1
    1a90:	31 f0       	breq	.+12     	; 0x1a9e <sinf+0x1a0>
    1a92:	22 30       	cpi	r18, 0x02	; 2
    1a94:	31 05       	cpc	r19, r1
    1a96:	31 f0       	breq	.+12     	; 0x1aa4 <sinf+0x1a6>
    1a98:	23 2b       	or	r18, r19
    1a9a:	41 f4       	brne	.+16     	; 0x1aac <sinf+0x1ae>
    1a9c:	04 c0       	rjmp	.+8      	; 0x1aa6 <sinf+0x1a8>
    1a9e:	0e 94 a6 10 	call	0x214c	; 0x214c <__cosdf>
    1aa2:	07 c0       	rjmp	.+14     	; 0x1ab2 <sinf+0x1b4>
    1aa4:	90 58       	subi	r25, 0x80	; 128
    1aa6:	0e 94 2d 10 	call	0x205a	; 0x205a <__sindf>
    1aaa:	03 c0       	rjmp	.+6      	; 0x1ab2 <sinf+0x1b4>
    1aac:	0e 94 a6 10 	call	0x214c	; 0x214c <__cosdf>
    1ab0:	90 58       	subi	r25, 0x80	; 128
    1ab2:	0f 90       	pop	r0
    1ab4:	0f 90       	pop	r0
    1ab6:	0f 90       	pop	r0
    1ab8:	0f 90       	pop	r0
    1aba:	df 91       	pop	r29
    1abc:	cf 91       	pop	r28
    1abe:	ff 90       	pop	r15
    1ac0:	ef 90       	pop	r14
    1ac2:	df 90       	pop	r13
    1ac4:	cf 90       	pop	r12
    1ac6:	08 95       	ret

Disassembly of section .text.__cosdf:

0000214c <__cosdf>:
    214c:	4f 92       	push	r4
    214e:	5f 92       	push	r5
    2150:	6f 92       	push	r6
    2152:	7f 92       	push	r7
    2154:	8f 92       	push	r8
    2156:	9f 92       	push	r9
    2158:	af 92       	push	r10
    215a:	bf 92       	push	r11
    215c:	cf 92       	push	r12
    215e:	df 92       	push	r13
    2160:	ef 92       	push	r14
    2162:	ff 92       	push	r15
    2164:	cf 93       	push	r28
    2166:	df 93       	push	r29
    2168:	00 d0       	rcall	.+0      	; 0x216a <__cosdf+0x1e>
    216a:	00 d0       	rcall	.+0      	; 0x216c <__cosdf+0x20>
    216c:	cd b7       	in	r28, 0x3d	; 61
    216e:	de b7       	in	r29, 0x3e	; 62
    2170:	9b 01       	movw	r18, r22
    2172:	ac 01       	movw	r20, r24
    2174:	0e 94 60 16 	call	0x2cc0	; 0x2cc0 <__mulsf3>
    2178:	6b 01       	movw	r12, r22
    217a:	7c 01       	movw	r14, r24
    217c:	9b 01       	movw	r18, r22
    217e:	ac 01       	movw	r20, r24
    2180:	0e 94 60 16 	call	0x2cc0	; 0x2cc0 <__mulsf3>
    2184:	2b 01       	movw	r4, r22
    2186:	3c 01       	movw	r6, r24
    2188:	20 e0       	ldi	r18, 0x00	; 0
    218a:	30 e0       	ldi	r19, 0x00	; 0
    218c:	40 e0       	ldi	r20, 0x00	; 0
    218e:	5f eb       	ldi	r21, 0xBF	; 191
    2190:	c7 01       	movw	r24, r14
    2192:	b6 01       	movw	r22, r12
    2194:	0e 94 60 16 	call	0x2cc0	; 0x2cc0 <__mulsf3>
    2198:	20 e0       	ldi	r18, 0x00	; 0
    219a:	30 e0       	ldi	r19, 0x00	; 0
    219c:	40 e8       	ldi	r20, 0x80	; 128
    219e:	5f e3       	ldi	r21, 0x3F	; 63
    21a0:	0e 94 fe 15 	call	0x2bfc	; 0x2bfc <__addsf3>
    21a4:	4b 01       	movw	r8, r22
    21a6:	5c 01       	movw	r10, r24
    21a8:	2f e9       	ldi	r18, 0x9F	; 159
    21aa:	3a ea       	ldi	r19, 0xAA	; 170
    21ac:	4a e2       	ldi	r20, 0x2A	; 42
    21ae:	5d e3       	ldi	r21, 0x3D	; 61
    21b0:	c3 01       	movw	r24, r6
    21b2:	b2 01       	movw	r22, r4
    21b4:	0e 94 60 16 	call	0x2cc0	; 0x2cc0 <__mulsf3>
    21b8:	9b 01       	movw	r18, r22
    21ba:	ac 01       	movw	r20, r24
    21bc:	c5 01       	movw	r24, r10
    21be:	b4 01       	movw	r22, r8
    21c0:	0e 94 fe 15 	call	0x2bfc	; 0x2bfc <__addsf3>
    21c4:	4b 01       	movw	r8, r22
    21c6:	5c 01       	movw	r10, r24
    21c8:	27 e1       	ldi	r18, 0x17	; 23
    21ca:	3a e9       	ldi	r19, 0x9A	; 154
    21cc:	4c ec       	ldi	r20, 0xCC	; 204
    21ce:	57 e3       	ldi	r21, 0x37	; 55
    21d0:	c7 01       	movw	r24, r14
    21d2:	b6 01       	movw	r22, r12
    21d4:	0e 94 60 16 	call	0x2cc0	; 0x2cc0 <__mulsf3>
    21d8:	2f e3       	ldi	r18, 0x3F	; 63
    21da:	34 e0       	ldi	r19, 0x04	; 4
    21dc:	46 eb       	ldi	r20, 0xB6	; 182
    21de:	5a e3       	ldi	r21, 0x3A	; 58
    21e0:	0e 94 fd 15 	call	0x2bfa	; 0x2bfa <__subsf3>
    21e4:	69 83       	std	Y+1, r22	; 0x01
    21e6:	7a 83       	std	Y+2, r23	; 0x02
    21e8:	8b 83       	std	Y+3, r24	; 0x03
    21ea:	9c 83       	std	Y+4, r25	; 0x04
    21ec:	a3 01       	movw	r20, r6
    21ee:	92 01       	movw	r18, r4
    21f0:	c7 01       	movw	r24, r14
    21f2:	b6 01       	movw	r22, r12
    21f4:	0e 94 60 16 	call	0x2cc0	; 0x2cc0 <__mulsf3>
    21f8:	9b 01       	movw	r18, r22
    21fa:	ac 01       	movw	r20, r24
    21fc:	69 81       	ldd	r22, Y+1	; 0x01
    21fe:	7a 81       	ldd	r23, Y+2	; 0x02
    2200:	8b 81       	ldd	r24, Y+3	; 0x03
    2202:	9c 81       	ldd	r25, Y+4	; 0x04
    2204:	0e 94 60 16 	call	0x2cc0	; 0x2cc0 <__mulsf3>
    2208:	9b 01       	movw	r18, r22
    220a:	ac 01       	movw	r20, r24
    220c:	c5 01       	movw	r24, r10
    220e:	b4 01       	movw	r22, r8
    2210:	0e 94 fe 15 	call	0x2bfc	; 0x2bfc <__addsf3>
    2214:	0f 90       	pop	r0
    2216:	0f 90       	pop	r0
    2218:	0f 90       	pop	r0
    221a:	0f 90       	pop	r0
    221c:	df 91       	pop	r29
    221e:	cf 91       	pop	r28
    2220:	ff 90       	pop	r15
    2222:	ef 90       	pop	r14
    2224:	df 90       	pop	r13
    2226:	cf 90       	pop	r12
    2228:	bf 90       	pop	r11
    222a:	af 90       	pop	r10
    222c:	9f 90       	pop	r9
    222e:	8f 90       	pop	r8
    2230:	7f 90       	pop	r7
    2232:	6f 90       	pop	r6
    2234:	5f 90       	pop	r5
    2236:	4f 90       	pop	r4
    2238:	08 95       	ret

Disassembly of section .text.__rem_pio2f:

00001ac8 <__rem_pio2f>:
    1ac8:	4f 92       	push	r4
    1aca:	5f 92       	push	r5
    1acc:	6f 92       	push	r6
    1ace:	7f 92       	push	r7
    1ad0:	af 92       	push	r10
    1ad2:	bf 92       	push	r11
    1ad4:	cf 92       	push	r12
    1ad6:	df 92       	push	r13
    1ad8:	ef 92       	push	r14
    1ada:	ff 92       	push	r15
    1adc:	0f 93       	push	r16
    1ade:	1f 93       	push	r17
    1ae0:	cf 93       	push	r28
    1ae2:	df 93       	push	r29
    1ae4:	cd b7       	in	r28, 0x3d	; 61
    1ae6:	de b7       	in	r29, 0x3e	; 62
    1ae8:	2c 97       	sbiw	r28, 0x0c	; 12
    1aea:	0f b6       	in	r0, 0x3f	; 63
    1aec:	f8 94       	cli
    1aee:	de bf       	out	0x3e, r29	; 62
    1af0:	0f be       	out	0x3f, r0	; 63
    1af2:	cd bf       	out	0x3d, r28	; 61
    1af4:	2b 01       	movw	r4, r22
    1af6:	3c 01       	movw	r6, r24
    1af8:	5a 01       	movw	r10, r20
    1afa:	dc 01       	movw	r26, r24
    1afc:	cb 01       	movw	r24, r22
    1afe:	bf 77       	andi	r27, 0x7F	; 127
    1b00:	8b 3d       	cpi	r24, 0xDB	; 219
    1b02:	2f e0       	ldi	r18, 0x0F	; 15
    1b04:	92 07       	cpc	r25, r18
    1b06:	29 ec       	ldi	r18, 0xC9	; 201
    1b08:	a2 07       	cpc	r26, r18
    1b0a:	2d e4       	ldi	r18, 0x4D	; 77
    1b0c:	b2 07       	cpc	r27, r18
    1b0e:	08 f0       	brcs	.+2      	; 0x1b12 <__rem_pio2f+0x4a>
    1b10:	42 c0       	rjmp	.+132    	; 0x1b96 <__rem_pio2f+0xce>
    1b12:	23 e8       	ldi	r18, 0x83	; 131
    1b14:	39 ef       	ldi	r19, 0xF9	; 249
    1b16:	42 e2       	ldi	r20, 0x22	; 34
    1b18:	5f e3       	ldi	r21, 0x3F	; 63
    1b1a:	c3 01       	movw	r24, r6
    1b1c:	b2 01       	movw	r22, r4
    1b1e:	0e 94 60 16 	call	0x2cc0	; 0x2cc0 <__mulsf3>
    1b22:	20 e0       	ldi	r18, 0x00	; 0
    1b24:	30 e0       	ldi	r19, 0x00	; 0
    1b26:	40 e4       	ldi	r20, 0x40	; 64
    1b28:	5b e4       	ldi	r21, 0x4B	; 75
    1b2a:	0e 94 fe 15 	call	0x2bfc	; 0x2bfc <__addsf3>
    1b2e:	20 e0       	ldi	r18, 0x00	; 0
    1b30:	30 e0       	ldi	r19, 0x00	; 0
    1b32:	40 e4       	ldi	r20, 0x40	; 64
    1b34:	5b e4       	ldi	r21, 0x4B	; 75
    1b36:	0e 94 fd 15 	call	0x2bfa	; 0x2bfa <__subsf3>
    1b3a:	6b 01       	movw	r12, r22
    1b3c:	7c 01       	movw	r14, r24
    1b3e:	0e 94 04 16 	call	0x2c08	; 0x2c08 <__fixsfsi>
    1b42:	69 87       	std	Y+9, r22	; 0x09
    1b44:	7a 87       	std	Y+10, r23	; 0x0a
    1b46:	8b 87       	std	Y+11, r24	; 0x0b
    1b48:	9c 87       	std	Y+12, r25	; 0x0c
    1b4a:	2a ed       	ldi	r18, 0xDA	; 218
    1b4c:	3f e0       	ldi	r19, 0x0F	; 15
    1b4e:	49 ec       	ldi	r20, 0xC9	; 201
    1b50:	5f e3       	ldi	r21, 0x3F	; 63
    1b52:	c7 01       	movw	r24, r14
    1b54:	b6 01       	movw	r22, r12
    1b56:	0e 94 60 16 	call	0x2cc0	; 0x2cc0 <__mulsf3>
    1b5a:	9b 01       	movw	r18, r22
    1b5c:	ac 01       	movw	r20, r24
    1b5e:	c3 01       	movw	r24, r6
    1b60:	b2 01       	movw	r22, r4
    1b62:	0e 94 fd 15 	call	0x2bfa	; 0x2bfa <__subsf3>
    1b66:	2b 01       	movw	r4, r22
    1b68:	3c 01       	movw	r6, r24
    1b6a:	23 ea       	ldi	r18, 0xA3	; 163
    1b6c:	35 e8       	ldi	r19, 0x85	; 133
    1b6e:	48 e8       	ldi	r20, 0x88	; 136
    1b70:	52 e3       	ldi	r21, 0x32	; 50
    1b72:	c7 01       	movw	r24, r14
    1b74:	b6 01       	movw	r22, r12
    1b76:	0e 94 60 16 	call	0x2cc0	; 0x2cc0 <__mulsf3>
    1b7a:	9b 01       	movw	r18, r22
    1b7c:	ac 01       	movw	r20, r24
    1b7e:	c3 01       	movw	r24, r6
    1b80:	b2 01       	movw	r22, r4
    1b82:	0e 94 fd 15 	call	0x2bfa	; 0x2bfa <__subsf3>
    1b86:	f5 01       	movw	r30, r10
    1b88:	60 83       	st	Z, r22
    1b8a:	71 83       	std	Z+1, r23	; 0x01
    1b8c:	82 83       	std	Z+2, r24	; 0x02
    1b8e:	93 83       	std	Z+3, r25	; 0x03
    1b90:	89 85       	ldd	r24, Y+9	; 0x09
    1b92:	9a 85       	ldd	r25, Y+10	; 0x0a
    1b94:	52 c0       	rjmp	.+164    	; 0x1c3a <__rem_pio2f+0x172>
    1b96:	00 97       	sbiw	r24, 0x00	; 0
    1b98:	f0 e8       	ldi	r31, 0x80	; 128
    1b9a:	af 07       	cpc	r26, r31
    1b9c:	ff e7       	ldi	r31, 0x7F	; 127
    1b9e:	bf 07       	cpc	r27, r31
    1ba0:	70 f0       	brcs	.+28     	; 0x1bbe <__rem_pio2f+0xf6>
    1ba2:	a3 01       	movw	r20, r6
    1ba4:	92 01       	movw	r18, r4
    1ba6:	c3 01       	movw	r24, r6
    1ba8:	b2 01       	movw	r22, r4
    1baa:	0e 94 fd 15 	call	0x2bfa	; 0x2bfa <__subsf3>
    1bae:	f5 01       	movw	r30, r10
    1bb0:	60 83       	st	Z, r22
    1bb2:	71 83       	std	Z+1, r23	; 0x01
    1bb4:	82 83       	std	Z+2, r24	; 0x02
    1bb6:	93 83       	std	Z+3, r25	; 0x03
    1bb8:	80 e0       	ldi	r24, 0x00	; 0
    1bba:	90 e0       	ldi	r25, 0x00	; 0
    1bbc:	3e c0       	rjmp	.+124    	; 0x1c3a <__rem_pio2f+0x172>
    1bbe:	ac 01       	movw	r20, r24
    1bc0:	bd 01       	movw	r22, r26
    1bc2:	27 e1       	ldi	r18, 0x17	; 23
    1bc4:	76 95       	lsr	r23
    1bc6:	67 95       	ror	r22
    1bc8:	57 95       	ror	r21
    1bca:	47 95       	ror	r20
    1bcc:	2a 95       	dec	r18
    1bce:	d1 f7       	brne	.-12     	; 0x1bc4 <__rem_pio2f+0xfc>
    1bd0:	46 59       	subi	r20, 0x96	; 150
    1bd2:	51 09       	sbc	r21, r1
    1bd4:	61 09       	sbc	r22, r1
    1bd6:	71 09       	sbc	r23, r1
    1bd8:	6a 01       	movw	r12, r20
    1bda:	7b 01       	movw	r14, r22
    1bdc:	37 e1       	ldi	r19, 0x17	; 23
    1bde:	cc 0c       	add	r12, r12
    1be0:	dd 1c       	adc	r13, r13
    1be2:	ee 1c       	adc	r14, r14
    1be4:	ff 1c       	adc	r15, r15
    1be6:	3a 95       	dec	r19
    1be8:	d1 f7       	brne	.-12     	; 0x1bde <__rem_pio2f+0x116>
    1bea:	8c 19       	sub	r24, r12
    1bec:	9d 09       	sbc	r25, r13
    1bee:	ae 09       	sbc	r26, r14
    1bf0:	bf 09       	sbc	r27, r15
    1bf2:	8d 83       	std	Y+5, r24	; 0x05
    1bf4:	9e 83       	std	Y+6, r25	; 0x06
    1bf6:	af 83       	std	Y+7, r26	; 0x07
    1bf8:	b8 87       	std	Y+8, r27	; 0x08
    1bfa:	00 e0       	ldi	r16, 0x00	; 0
    1bfc:	10 e0       	ldi	r17, 0x00	; 0
    1bfe:	21 e0       	ldi	r18, 0x01	; 1
    1c00:	30 e0       	ldi	r19, 0x00	; 0
    1c02:	be 01       	movw	r22, r28
    1c04:	6f 5f       	subi	r22, 0xFF	; 255
    1c06:	7f 4f       	sbci	r23, 0xFF	; 255
    1c08:	ce 01       	movw	r24, r28
    1c0a:	05 96       	adiw	r24, 0x05	; 5
    1c0c:	0e 94 2a 01 	call	0x254	; 0x254 <__rem_pio2_large>
    1c10:	49 81       	ldd	r20, Y+1	; 0x01
    1c12:	5a 81       	ldd	r21, Y+2	; 0x02
    1c14:	6b 81       	ldd	r22, Y+3	; 0x03
    1c16:	7c 81       	ldd	r23, Y+4	; 0x04
    1c18:	77 fe       	sbrs	r7, 7
    1c1a:	0a c0       	rjmp	.+20     	; 0x1c30 <__rem_pio2f+0x168>
    1c1c:	70 58       	subi	r23, 0x80	; 128
    1c1e:	f5 01       	movw	r30, r10
    1c20:	40 83       	st	Z, r20
    1c22:	51 83       	std	Z+1, r21	; 0x01
    1c24:	62 83       	std	Z+2, r22	; 0x02
    1c26:	73 83       	std	Z+3, r23	; 0x03
    1c28:	91 95       	neg	r25
    1c2a:	81 95       	neg	r24
    1c2c:	91 09       	sbc	r25, r1
    1c2e:	05 c0       	rjmp	.+10     	; 0x1c3a <__rem_pio2f+0x172>
    1c30:	f5 01       	movw	r30, r10
    1c32:	40 83       	st	Z, r20
    1c34:	51 83       	std	Z+1, r21	; 0x01
    1c36:	62 83       	std	Z+2, r22	; 0x02
    1c38:	73 83       	std	Z+3, r23	; 0x03
    1c3a:	2c 96       	adiw	r28, 0x0c	; 12
    1c3c:	0f b6       	in	r0, 0x3f	; 63
    1c3e:	f8 94       	cli
    1c40:	de bf       	out	0x3e, r29	; 62
    1c42:	0f be       	out	0x3f, r0	; 63
    1c44:	cd bf       	out	0x3d, r28	; 61
    1c46:	df 91       	pop	r29
    1c48:	cf 91       	pop	r28
    1c4a:	1f 91       	pop	r17
    1c4c:	0f 91       	pop	r16
    1c4e:	ff 90       	pop	r15
    1c50:	ef 90       	pop	r14
    1c52:	df 90       	pop	r13
    1c54:	cf 90       	pop	r12
    1c56:	bf 90       	pop	r11
    1c58:	af 90       	pop	r10
    1c5a:	7f 90       	pop	r7
    1c5c:	6f 90       	pop	r6
    1c5e:	5f 90       	pop	r5
    1c60:	4f 90       	pop	r4
    1c62:	08 95       	ret

Disassembly of section .text.__sindf:

0000205a <__sindf>:
    205a:	4f 92       	push	r4
    205c:	5f 92       	push	r5
    205e:	6f 92       	push	r6
    2060:	7f 92       	push	r7
    2062:	8f 92       	push	r8
    2064:	9f 92       	push	r9
    2066:	af 92       	push	r10
    2068:	bf 92       	push	r11
    206a:	cf 92       	push	r12
    206c:	df 92       	push	r13
    206e:	ef 92       	push	r14
    2070:	ff 92       	push	r15
    2072:	cf 93       	push	r28
    2074:	df 93       	push	r29
    2076:	00 d0       	rcall	.+0      	; 0x2078 <__sindf+0x1e>
    2078:	00 d0       	rcall	.+0      	; 0x207a <__sindf+0x20>
    207a:	cd b7       	in	r28, 0x3d	; 61
    207c:	de b7       	in	r29, 0x3e	; 62
    207e:	4b 01       	movw	r8, r22
    2080:	5c 01       	movw	r10, r24
    2082:	9b 01       	movw	r18, r22
    2084:	ac 01       	movw	r20, r24
    2086:	0e 94 60 16 	call	0x2cc0	; 0x2cc0 <__mulsf3>
    208a:	6b 01       	movw	r12, r22
    208c:	7c 01       	movw	r14, r24
    208e:	9b 01       	movw	r18, r22
    2090:	ac 01       	movw	r20, r24
    2092:	c5 01       	movw	r24, r10
    2094:	b4 01       	movw	r22, r8
    2096:	0e 94 60 16 	call	0x2cc0	; 0x2cc0 <__mulsf3>
    209a:	69 83       	std	Y+1, r22	; 0x01
    209c:	7a 83       	std	Y+2, r23	; 0x02
    209e:	8b 83       	std	Y+3, r24	; 0x03
    20a0:	9c 83       	std	Y+4, r25	; 0x04
    20a2:	2c e3       	ldi	r18, 0x3C	; 60
    20a4:	3c e6       	ldi	r19, 0x6C	; 108
    20a6:	46 e3       	ldi	r20, 0x36	; 54
    20a8:	56 e3       	ldi	r21, 0x36	; 54
    20aa:	c7 01       	movw	r24, r14
    20ac:	b6 01       	movw	r22, r12
    20ae:	0e 94 60 16 	call	0x2cc0	; 0x2cc0 <__mulsf3>
    20b2:	2f ec       	ldi	r18, 0xCF	; 207
    20b4:	37 e0       	ldi	r19, 0x07	; 7
    20b6:	40 e5       	ldi	r20, 0x50	; 80
    20b8:	59 e3       	ldi	r21, 0x39	; 57
    20ba:	0e 94 fd 15 	call	0x2bfa	; 0x2bfa <__subsf3>
    20be:	2b 01       	movw	r4, r22
    20c0:	3c 01       	movw	r6, r24
    20c2:	a7 01       	movw	r20, r14
    20c4:	96 01       	movw	r18, r12
    20c6:	c7 01       	movw	r24, r14
    20c8:	b6 01       	movw	r22, r12
    20ca:	0e 94 60 16 	call	0x2cc0	; 0x2cc0 <__mulsf3>
    20ce:	29 81       	ldd	r18, Y+1	; 0x01
    20d0:	3a 81       	ldd	r19, Y+2	; 0x02
    20d2:	4b 81       	ldd	r20, Y+3	; 0x03
    20d4:	5c 81       	ldd	r21, Y+4	; 0x04
    20d6:	0e 94 60 16 	call	0x2cc0	; 0x2cc0 <__mulsf3>
    20da:	9b 01       	movw	r18, r22
    20dc:	ac 01       	movw	r20, r24
    20de:	c3 01       	movw	r24, r6
    20e0:	b2 01       	movw	r22, r4
    20e2:	0e 94 60 16 	call	0x2cc0	; 0x2cc0 <__mulsf3>
    20e6:	2b 01       	movw	r4, r22
    20e8:	3c 01       	movw	r6, r24
    20ea:	24 e8       	ldi	r18, 0x84	; 132
    20ec:	38 e8       	ldi	r19, 0x88	; 136
    20ee:	48 e0       	ldi	r20, 0x08	; 8
    20f0:	5c e3       	ldi	r21, 0x3C	; 60
    20f2:	c7 01       	movw	r24, r14
    20f4:	b6 01       	movw	r22, r12
    20f6:	0e 94 60 16 	call	0x2cc0	; 0x2cc0 <__mulsf3>
    20fa:	2b ea       	ldi	r18, 0xAB	; 171
    20fc:	3a ea       	ldi	r19, 0xAA	; 170
    20fe:	4a e2       	ldi	r20, 0x2A	; 42
    2100:	5e e3       	ldi	r21, 0x3E	; 62
    2102:	0e 94 fd 15 	call	0x2bfa	; 0x2bfa <__subsf3>
    2106:	29 81       	ldd	r18, Y+1	; 0x01
    2108:	3a 81       	ldd	r19, Y+2	; 0x02
    210a:	4b 81       	ldd	r20, Y+3	; 0x03
    210c:	5c 81       	ldd	r21, Y+4	; 0x04
    210e:	0e 94 60 16 	call	0x2cc0	; 0x2cc0 <__mulsf3>
    2112:	a5 01       	movw	r20, r10
    2114:	94 01       	movw	r18, r8
    2116:	0e 94 fe 15 	call	0x2bfc	; 0x2bfc <__addsf3>
    211a:	9b 01       	movw	r18, r22
    211c:	ac 01       	movw	r20, r24
    211e:	c3 01       	movw	r24, r6
    2120:	b2 01       	movw	r22, r4
    2122:	0e 94 fe 15 	call	0x2bfc	; 0x2bfc <__addsf3>
    2126:	0f 90       	pop	r0
    2128:	0f 90       	pop	r0
    212a:	0f 90       	pop	r0
    212c:	0f 90       	pop	r0
    212e:	df 91       	pop	r29
    2130:	cf 91       	pop	r28
    2132:	ff 90       	pop	r15
    2134:	ef 90       	pop	r14
    2136:	df 90       	pop	r13
    2138:	cf 90       	pop	r12
    213a:	bf 90       	pop	r11
    213c:	af 90       	pop	r10
    213e:	9f 90       	pop	r9
    2140:	8f 90       	pop	r8
    2142:	7f 90       	pop	r7
    2144:	6f 90       	pop	r6
    2146:	5f 90       	pop	r5
    2148:	4f 90       	pop	r4
    214a:	08 95       	ret

Disassembly of section .text:

00002bfa <__subsf3>:
    2bfa:	50 58       	subi	r21, 0x80	; 128

00002bfc <__addsf3>:
    2bfc:	bb 27       	eor	r27, r27
    2bfe:	aa 27       	eor	r26, r26
    2c00:	0e 94 f6 11 	call	0x23ec	; 0x23ec <__addsf3x>
    2c04:	0c 94 96 15 	jmp	0x2b2c	; 0x2b2c <__fp_round>

Disassembly of section .text:

000023ec <__addsf3x>:
    23ec:	11 c0       	rjmp	.+34     	; 0x2410 <__addsf3x+0x24>
    23ee:	0e 94 e8 15 	call	0x2bd0	; 0x2bd0 <__fp_pscA>
    23f2:	38 f0       	brcs	.+14     	; 0x2402 <__addsf3x+0x16>
    23f4:	0e 94 ef 15 	call	0x2bde	; 0x2bde <__fp_pscB>
    23f8:	20 f0       	brcs	.+8      	; 0x2402 <__addsf3x+0x16>
    23fa:	39 f4       	brne	.+14     	; 0x240a <__addsf3x+0x1e>
    23fc:	9f 3f       	cpi	r25, 0xFF	; 255
    23fe:	19 f4       	brne	.+6      	; 0x2406 <__addsf3x+0x1a>
    2400:	26 f4       	brtc	.+8      	; 0x240a <__addsf3x+0x1e>
    2402:	0c 94 64 16 	jmp	0x2cc8	; 0x2cc8 <__fp_nan>
    2406:	0e f4       	brtc	.+2      	; 0x240a <__addsf3x+0x1e>
    2408:	e0 95       	com	r30
    240a:	e7 fb       	bst	r30, 7
    240c:	0c 94 0b 16 	jmp	0x2c16	; 0x2c16 <__fp_inf>
    2410:	e9 2f       	mov	r30, r25
    2412:	0e 94 bc 14 	call	0x2978	; 0x2978 <__fp_split3>
    2416:	58 f3       	brcs	.-42     	; 0x23ee <__addsf3x+0x2>
    2418:	ba 17       	cp	r27, r26
    241a:	62 07       	cpc	r22, r18
    241c:	73 07       	cpc	r23, r19
    241e:	84 07       	cpc	r24, r20
    2420:	95 07       	cpc	r25, r21
    2422:	20 f0       	brcs	.+8      	; 0x242c <__addsf3x+0x40>
    2424:	79 f4       	brne	.+30     	; 0x2444 <__addsf3x+0x58>
    2426:	a6 f5       	brtc	.+104    	; 0x2490 <__addsf3x+0xa4>
    2428:	0c 94 f6 15 	jmp	0x2bec	; 0x2bec <__fp_zero>
    242c:	0e f4       	brtc	.+2      	; 0x2430 <__addsf3x+0x44>
    242e:	e0 95       	com	r30
    2430:	0b 2e       	mov	r0, r27
    2432:	ba 2f       	mov	r27, r26
    2434:	a0 2d       	mov	r26, r0
    2436:	0b 01       	movw	r0, r22
    2438:	b9 01       	movw	r22, r18
    243a:	90 01       	movw	r18, r0
    243c:	0c 01       	movw	r0, r24
    243e:	ca 01       	movw	r24, r20
    2440:	a0 01       	movw	r20, r0
    2442:	11 24       	eor	r1, r1
    2444:	ff 27       	eor	r31, r31
    2446:	59 1b       	sub	r21, r25
    2448:	99 f0       	breq	.+38     	; 0x2470 <__addsf3x+0x84>
    244a:	59 3f       	cpi	r21, 0xF9	; 249
    244c:	50 f4       	brcc	.+20     	; 0x2462 <__addsf3x+0x76>
    244e:	50 3e       	cpi	r21, 0xE0	; 224
    2450:	68 f1       	brcs	.+90     	; 0x24ac <__addsf3x+0xc0>
    2452:	1a 16       	cp	r1, r26
    2454:	f0 40       	sbci	r31, 0x00	; 0
    2456:	a2 2f       	mov	r26, r18
    2458:	23 2f       	mov	r18, r19
    245a:	34 2f       	mov	r19, r20
    245c:	44 27       	eor	r20, r20
    245e:	58 5f       	subi	r21, 0xF8	; 248
    2460:	f3 cf       	rjmp	.-26     	; 0x2448 <__addsf3x+0x5c>
    2462:	46 95       	lsr	r20
    2464:	37 95       	ror	r19
    2466:	27 95       	ror	r18
    2468:	a7 95       	ror	r26
    246a:	f0 40       	sbci	r31, 0x00	; 0
    246c:	53 95       	inc	r21
    246e:	c9 f7       	brne	.-14     	; 0x2462 <__addsf3x+0x76>
    2470:	7e f4       	brtc	.+30     	; 0x2490 <__addsf3x+0xa4>
    2472:	1f 16       	cp	r1, r31
    2474:	ba 0b       	sbc	r27, r26
    2476:	62 0b       	sbc	r22, r18
    2478:	73 0b       	sbc	r23, r19
    247a:	84 0b       	sbc	r24, r20
    247c:	ba f0       	brmi	.+46     	; 0x24ac <__addsf3x+0xc0>
    247e:	91 50       	subi	r25, 0x01	; 1
    2480:	a1 f0       	breq	.+40     	; 0x24aa <__addsf3x+0xbe>
    2482:	ff 0f       	add	r31, r31
    2484:	bb 1f       	adc	r27, r27
    2486:	66 1f       	adc	r22, r22
    2488:	77 1f       	adc	r23, r23
    248a:	88 1f       	adc	r24, r24
    248c:	c2 f7       	brpl	.-16     	; 0x247e <__addsf3x+0x92>
    248e:	0e c0       	rjmp	.+28     	; 0x24ac <__addsf3x+0xc0>
    2490:	ba 0f       	add	r27, r26
    2492:	62 1f       	adc	r22, r18
    2494:	73 1f       	adc	r23, r19
    2496:	84 1f       	adc	r24, r20
    2498:	48 f4       	brcc	.+18     	; 0x24ac <__addsf3x+0xc0>
    249a:	87 95       	ror	r24
    249c:	77 95       	ror	r23
    249e:	67 95       	ror	r22
    24a0:	b7 95       	ror	r27
    24a2:	f7 95       	ror	r31
    24a4:	9e 3f       	cpi	r25, 0xFE	; 254
    24a6:	08 f0       	brcs	.+2      	; 0x24aa <__addsf3x+0xbe>
    24a8:	b0 cf       	rjmp	.-160    	; 0x240a <__addsf3x+0x1e>
    24aa:	93 95       	inc	r25
    24ac:	88 0f       	add	r24, r24
    24ae:	08 f0       	brcs	.+2      	; 0x24b2 <__addsf3x+0xc6>
    24b0:	99 27       	eor	r25, r25
    24b2:	ee 0f       	add	r30, r30
    24b4:	97 95       	ror	r25
    24b6:	87 95       	ror	r24
    24b8:	08 95       	ret

Disassembly of section .text:

00002c08 <__fixsfsi>:
    2c08:	0e 94 f8 13 	call	0x27f0	; 0x27f0 <__fixunssfsi>
    2c0c:	68 94       	set
    2c0e:	b1 11       	cpse	r27, r1
    2c10:	0c 94 f7 15 	jmp	0x2bee	; 0x2bee <__fp_szero>
    2c14:	08 95       	ret

Disassembly of section .text:

000027f0 <__fixunssfsi>:
    27f0:	0e 94 c4 14 	call	0x2988	; 0x2988 <__fp_splitA>
    27f4:	88 f0       	brcs	.+34     	; 0x2818 <__fixunssfsi+0x28>
    27f6:	9f 57       	subi	r25, 0x7F	; 127
    27f8:	98 f0       	brcs	.+38     	; 0x2820 <__fixunssfsi+0x30>
    27fa:	b9 2f       	mov	r27, r25
    27fc:	99 27       	eor	r25, r25
    27fe:	b7 51       	subi	r27, 0x17	; 23
    2800:	b0 f0       	brcs	.+44     	; 0x282e <__fixunssfsi+0x3e>
    2802:	e1 f0       	breq	.+56     	; 0x283c <__fixunssfsi+0x4c>
    2804:	66 0f       	add	r22, r22
    2806:	77 1f       	adc	r23, r23
    2808:	88 1f       	adc	r24, r24
    280a:	99 1f       	adc	r25, r25
    280c:	1a f0       	brmi	.+6      	; 0x2814 <__fixunssfsi+0x24>
    280e:	ba 95       	dec	r27
    2810:	c9 f7       	brne	.-14     	; 0x2804 <__fixunssfsi+0x14>
    2812:	14 c0       	rjmp	.+40     	; 0x283c <__fixunssfsi+0x4c>
    2814:	b1 30       	cpi	r27, 0x01	; 1
    2816:	91 f0       	breq	.+36     	; 0x283c <__fixunssfsi+0x4c>
    2818:	0e 94 f6 15 	call	0x2bec	; 0x2bec <__fp_zero>
    281c:	b1 e0       	ldi	r27, 0x01	; 1
    281e:	08 95       	ret
    2820:	0c 94 f6 15 	jmp	0x2bec	; 0x2bec <__fp_zero>
    2824:	67 2f       	mov	r22, r23
    2826:	78 2f       	mov	r23, r24
    2828:	88 27       	eor	r24, r24
    282a:	b8 5f       	subi	r27, 0xF8	; 248
    282c:	39 f0       	breq	.+14     	; 0x283c <__fixunssfsi+0x4c>
    282e:	b9 3f       	cpi	r27, 0xF9	; 249
    2830:	cc f3       	brlt	.-14     	; 0x2824 <__fixunssfsi+0x34>
    2832:	86 95       	lsr	r24
    2834:	77 95       	ror	r23
    2836:	67 95       	ror	r22
    2838:	b3 95       	inc	r27
    283a:	d9 f7       	brne	.-10     	; 0x2832 <__fixunssfsi+0x42>
    283c:	3e f4       	brtc	.+14     	; 0x284c <__fixunssfsi+0x5c>
    283e:	90 95       	com	r25
    2840:	80 95       	com	r24
    2842:	70 95       	com	r23
    2844:	61 95       	neg	r22
    2846:	7f 4f       	sbci	r23, 0xFF	; 255
    2848:	8f 4f       	sbci	r24, 0xFF	; 255
    284a:	9f 4f       	sbci	r25, 0xFF	; 255
    284c:	08 95       	ret

Disassembly of section .text.__rem_pio2_large:

00000254 <__rem_pio2_large>:
     254:	a1 e7       	ldi	r26, 0x71	; 113
     256:	b1 e0       	ldi	r27, 0x01	; 1
     258:	e0 e3       	ldi	r30, 0x30	; 48
     25a:	f1 e0       	ldi	r31, 0x01	; 1
     25c:	0c 94 de 14 	jmp	0x29bc	; 0x29bc <__prologue_saves__>
     260:	cb 59       	subi	r28, 0x9B	; 155
     262:	de 4f       	sbci	r29, 0xFE	; 254
     264:	88 83       	st	Y, r24
     266:	c5 56       	subi	r28, 0x65	; 101
     268:	d1 40       	sbci	r29, 0x01	; 1
     26a:	c7 59       	subi	r28, 0x97	; 151
     26c:	de 4f       	sbci	r29, 0xFE	; 254
     26e:	98 83       	st	Y, r25
     270:	c9 56       	subi	r28, 0x69	; 105
     272:	d1 40       	sbci	r29, 0x01	; 1
     274:	c3 5a       	subi	r28, 0xA3	; 163
     276:	de 4f       	sbci	r29, 0xFE	; 254
     278:	79 83       	std	Y+1, r23	; 0x01
     27a:	68 83       	st	Y, r22
     27c:	cd 55       	subi	r28, 0x5D	; 93
     27e:	d1 40       	sbci	r29, 0x01	; 1
     280:	7a 01       	movw	r14, r20
     282:	c7 5b       	subi	r28, 0xB7	; 183
     284:	de 4f       	sbci	r29, 0xFE	; 254
     286:	39 83       	std	Y+1, r19	; 0x01
     288:	28 83       	st	Y, r18
     28a:	c9 54       	subi	r28, 0x49	; 73
     28c:	d1 40       	sbci	r29, 0x01	; 1
     28e:	cd 59       	subi	r28, 0x9D	; 157
     290:	de 4f       	sbci	r29, 0xFE	; 254
     292:	19 83       	std	Y+1, r17	; 0x01
     294:	08 83       	st	Y, r16
     296:	c3 56       	subi	r28, 0x63	; 99
     298:	d1 40       	sbci	r29, 0x01	; 1
     29a:	c8 01       	movw	r24, r16
     29c:	88 0f       	add	r24, r24
     29e:	99 1f       	adc	r25, r25
     2a0:	09 2e       	mov	r0, r25
     2a2:	00 0c       	add	r0, r0
     2a4:	aa 0b       	sbc	r26, r26
     2a6:	84 5b       	subi	r24, 0xB4	; 180
     2a8:	9d 4f       	sbci	r25, 0xFD	; 253
     2aa:	af 4f       	sbci	r26, 0xFF	; 255
     2ac:	fc 01       	movw	r30, r24
     2ae:	5a 2f       	mov	r21, r26
     2b0:	0e 94 e0 15 	call	0x2bc0	; 0x2bc0 <__xload_2>
     2b4:	4b 01       	movw	r8, r22
     2b6:	77 0f       	add	r23, r23
     2b8:	aa 08       	sbc	r10, r10
     2ba:	bb 08       	sbc	r11, r11
     2bc:	cb 5a       	subi	r28, 0xAB	; 171
     2be:	de 4f       	sbci	r29, 0xFE	; 254
     2c0:	88 82       	st	Y, r8
     2c2:	99 82       	std	Y+1, r9	; 0x01
     2c4:	aa 82       	std	Y+2, r10	; 0x02
     2c6:	bb 82       	std	Y+3, r11	; 0x03
     2c8:	c5 55       	subi	r28, 0x55	; 85
     2ca:	d1 40       	sbci	r29, 0x01	; 1
     2cc:	c9 01       	movw	r24, r18
     2ce:	01 97       	sbiw	r24, 0x01	; 1
     2d0:	5c 01       	movw	r10, r24
     2d2:	99 0f       	add	r25, r25
     2d4:	cc 08       	sbc	r12, r12
     2d6:	dd 08       	sbc	r13, r13
     2d8:	cf 5a       	subi	r28, 0xAF	; 175
     2da:	de 4f       	sbci	r29, 0xFE	; 254
     2dc:	a8 82       	st	Y, r10
     2de:	b9 82       	std	Y+1, r11	; 0x01
     2e0:	ca 82       	std	Y+2, r12	; 0x02
     2e2:	db 82       	std	Y+3, r13	; 0x03
     2e4:	c1 55       	subi	r28, 0x51	; 81
     2e6:	d1 40       	sbci	r29, 0x01	; 1
     2e8:	c7 01       	movw	r24, r14
     2ea:	03 97       	sbiw	r24, 0x03	; 3
     2ec:	68 e1       	ldi	r22, 0x18	; 24
     2ee:	70 e0       	ldi	r23, 0x00	; 0
     2f0:	0e 94 5c 15 	call	0x2ab8	; 0x2ab8 <__divmodhi4>
     2f4:	77 fd       	sbrc	r23, 7
     2f6:	0d c0       	rjmp	.+26     	; 0x312 <__rem_pio2_large+0xbe>
     2f8:	4b 01       	movw	r8, r22
     2fa:	77 0f       	add	r23, r23
     2fc:	aa 08       	sbc	r10, r10
     2fe:	bb 08       	sbc	r11, r11
     300:	c7 5a       	subi	r28, 0xA7	; 167
     302:	de 4f       	sbci	r29, 0xFE	; 254
     304:	88 82       	st	Y, r8
     306:	99 82       	std	Y+1, r9	; 0x01
     308:	aa 82       	std	Y+2, r10	; 0x02
     30a:	bb 82       	std	Y+3, r11	; 0x03
     30c:	c9 55       	subi	r28, 0x59	; 89
     30e:	d1 40       	sbci	r29, 0x01	; 1
     310:	08 c0       	rjmp	.+16     	; 0x322 <__rem_pio2_large+0xce>
     312:	c7 5a       	subi	r28, 0xA7	; 167
     314:	de 4f       	sbci	r29, 0xFE	; 254
     316:	18 82       	st	Y, r1
     318:	19 82       	std	Y+1, r1	; 0x01
     31a:	1a 82       	std	Y+2, r1	; 0x02
     31c:	1b 82       	std	Y+3, r1	; 0x03
     31e:	c9 55       	subi	r28, 0x59	; 89
     320:	d1 40       	sbci	r29, 0x01	; 1
     322:	a8 ee       	ldi	r26, 0xE8	; 232
     324:	bf ef       	ldi	r27, 0xFF	; 255
     326:	c7 5a       	subi	r28, 0xA7	; 167
     328:	de 4f       	sbci	r29, 0xFE	; 254
     32a:	28 81       	ld	r18, Y
     32c:	39 81       	ldd	r19, Y+1	; 0x01
     32e:	4a 81       	ldd	r20, Y+2	; 0x02
     330:	5b 81       	ldd	r21, Y+3	; 0x03
     332:	c9 55       	subi	r28, 0x59	; 89
     334:	d1 40       	sbci	r29, 0x01	; 1
     336:	2f 5f       	subi	r18, 0xFF	; 255
     338:	3f 4f       	sbci	r19, 0xFF	; 255
     33a:	4f 4f       	sbci	r20, 0xFF	; 255
     33c:	5f 4f       	sbci	r21, 0xFF	; 255
     33e:	0e 94 db 15 	call	0x2bb6	; 0x2bb6 <__mulohisi3>
     342:	87 01       	movw	r16, r14
     344:	ff 0c       	add	r15, r15
     346:	22 0b       	sbc	r18, r18
     348:	33 0b       	sbc	r19, r19
     34a:	5b 01       	movw	r10, r22
     34c:	6c 01       	movw	r12, r24
     34e:	a0 0e       	add	r10, r16
     350:	b1 1e       	adc	r11, r17
     352:	c2 1e       	adc	r12, r18
     354:	d3 1e       	adc	r13, r19
     356:	cf 5b       	subi	r28, 0xBF	; 191
     358:	de 4f       	sbci	r29, 0xFE	; 254
     35a:	a8 82       	st	Y, r10
     35c:	b9 82       	std	Y+1, r11	; 0x01
     35e:	ca 82       	std	Y+2, r12	; 0x02
     360:	db 82       	std	Y+3, r13	; 0x03
     362:	c1 54       	subi	r28, 0x41	; 65
     364:	d1 40       	sbci	r29, 0x01	; 1
     366:	c7 5a       	subi	r28, 0xA7	; 167
     368:	de 4f       	sbci	r29, 0xFE	; 254
     36a:	48 80       	ld	r4, Y
     36c:	59 80       	ldd	r5, Y+1	; 0x01
     36e:	6a 80       	ldd	r6, Y+2	; 0x02
     370:	7b 80       	ldd	r7, Y+3	; 0x03
     372:	c9 55       	subi	r28, 0x59	; 89
     374:	d1 40       	sbci	r29, 0x01	; 1
     376:	cf 5a       	subi	r28, 0xAF	; 175
     378:	de 4f       	sbci	r29, 0xFE	; 254
     37a:	c8 80       	ld	r12, Y
     37c:	d9 80       	ldd	r13, Y+1	; 0x01
     37e:	ea 80       	ldd	r14, Y+2	; 0x02
     380:	fb 80       	ldd	r15, Y+3	; 0x03
     382:	c1 55       	subi	r28, 0x51	; 81
     384:	d1 40       	sbci	r29, 0x01	; 1
     386:	4c 18       	sub	r4, r12
     388:	5d 08       	sbc	r5, r13
     38a:	6e 08       	sbc	r6, r14
     38c:	7f 08       	sbc	r7, r15
     38e:	cb 5a       	subi	r28, 0xAB	; 171
     390:	de 4f       	sbci	r29, 0xFE	; 254
     392:	88 80       	ld	r8, Y
     394:	99 80       	ldd	r9, Y+1	; 0x01
     396:	aa 80       	ldd	r10, Y+2	; 0x02
     398:	bb 80       	ldd	r11, Y+3	; 0x03
     39a:	c5 55       	subi	r28, 0x55	; 85
     39c:	d1 40       	sbci	r29, 0x01	; 1
     39e:	8c 0c       	add	r8, r12
     3a0:	9d 1c       	adc	r9, r13
     3a2:	ae 1c       	adc	r10, r14
     3a4:	bf 1c       	adc	r11, r15
     3a6:	cb 5b       	subi	r28, 0xBB	; 187
     3a8:	de 4f       	sbci	r29, 0xFE	; 254
     3aa:	88 82       	st	Y, r8
     3ac:	99 82       	std	Y+1, r9	; 0x01
     3ae:	aa 82       	std	Y+2, r10	; 0x02
     3b0:	bb 82       	std	Y+3, r11	; 0x03
     3b2:	c5 54       	subi	r28, 0x45	; 69
     3b4:	d1 40       	sbci	r29, 0x01	; 1
     3b6:	8e 01       	movw	r16, r28
     3b8:	0f 55       	subi	r16, 0x5F	; 95
     3ba:	1f 4f       	sbci	r17, 0xFF	; 255
     3bc:	62 01       	movw	r12, r4
     3be:	cc 0c       	add	r12, r12
     3c0:	dd 1c       	adc	r13, r13
     3c2:	cc 0c       	add	r12, r12
     3c4:	dd 1c       	adc	r13, r13
     3c6:	c6 01       	movw	r24, r12
     3c8:	dd 0c       	add	r13, r13
     3ca:	aa 0b       	sbc	r26, r26
     3cc:	9c 01       	movw	r18, r24
     3ce:	4a 2f       	mov	r20, r26
     3d0:	2e 50       	subi	r18, 0x0E	; 14
     3d2:	3f 4f       	sbci	r19, 0xFF	; 255
     3d4:	4f 4f       	sbci	r20, 0xFF	; 255
     3d6:	69 01       	movw	r12, r18
     3d8:	e4 2e       	mov	r14, r20
     3da:	81 2c       	mov	r8, r1
     3dc:	91 2c       	mov	r9, r1
     3de:	54 01       	movw	r10, r8
     3e0:	cb 5b       	subi	r28, 0xBB	; 187
     3e2:	de 4f       	sbci	r29, 0xFE	; 254
     3e4:	28 81       	ld	r18, Y
     3e6:	39 81       	ldd	r19, Y+1	; 0x01
     3e8:	4a 81       	ldd	r20, Y+2	; 0x02
     3ea:	5b 81       	ldd	r21, Y+3	; 0x03
     3ec:	c5 54       	subi	r28, 0x45	; 69
     3ee:	d1 40       	sbci	r29, 0x01	; 1
     3f0:	28 15       	cp	r18, r8
     3f2:	39 05       	cpc	r19, r9
     3f4:	4a 05       	cpc	r20, r10
     3f6:	5b 05       	cpc	r21, r11
     3f8:	14 f1       	brlt	.+68     	; 0x43e <__EEPROM_REGION_LENGTH__+0x3e>
     3fa:	d5 01       	movw	r26, r10
     3fc:	c4 01       	movw	r24, r8
     3fe:	84 0d       	add	r24, r4
     400:	95 1d       	adc	r25, r5
     402:	a6 1d       	adc	r26, r6
     404:	b7 1d       	adc	r27, r7
     406:	b7 fd       	sbrc	r27, 7
     408:	07 c0       	rjmp	.+14     	; 0x418 <__EEPROM_REGION_LENGTH__+0x18>
     40a:	f6 01       	movw	r30, r12
     40c:	5e 2d       	mov	r21, r14
     40e:	0e 94 b6 15 	call	0x2b6c	; 0x2b6c <__xload_4>
     412:	0e 94 51 13 	call	0x26a2	; 0x26a2 <__floatsisf>
     416:	03 c0       	rjmp	.+6      	; 0x41e <__EEPROM_REGION_LENGTH__+0x1e>
     418:	60 e0       	ldi	r22, 0x00	; 0
     41a:	70 e0       	ldi	r23, 0x00	; 0
     41c:	cb 01       	movw	r24, r22
     41e:	d8 01       	movw	r26, r16
     420:	6d 93       	st	X+, r22
     422:	7d 93       	st	X+, r23
     424:	8d 93       	st	X+, r24
     426:	9d 93       	st	X+, r25
     428:	8d 01       	movw	r16, r26
     42a:	bf ef       	ldi	r27, 0xFF	; 255
     42c:	8b 1a       	sub	r8, r27
     42e:	9b 0a       	sbc	r9, r27
     430:	ab 0a       	sbc	r10, r27
     432:	bb 0a       	sbc	r11, r27
     434:	e4 e0       	ldi	r30, 0x04	; 4
     436:	ce 0e       	add	r12, r30
     438:	d1 1c       	adc	r13, r1
     43a:	e1 1c       	adc	r14, r1
     43c:	d1 cf       	rjmp	.-94     	; 0x3e0 <__rem_pio2_large+0x18c>
     43e:	8e 01       	movw	r16, r28
     440:	0f 5f       	subi	r16, 0xFF	; 255
     442:	1f 4f       	sbci	r17, 0xFF	; 255
     444:	c3 5b       	subi	r28, 0xB3	; 179
     446:	de 4f       	sbci	r29, 0xFE	; 254
     448:	19 83       	std	Y+1, r17	; 0x01
     44a:	08 83       	st	Y, r16
     44c:	cd 54       	subi	r28, 0x4D	; 77
     44e:	d1 40       	sbci	r29, 0x01	; 1
     450:	c7 5b       	subi	r28, 0xB7	; 183
     452:	de 4f       	sbci	r29, 0xFE	; 254
     454:	88 80       	ld	r8, Y
     456:	99 80       	ldd	r9, Y+1	; 0x01
     458:	c9 54       	subi	r28, 0x49	; 73
     45a:	d1 40       	sbci	r29, 0x01	; 1
     45c:	c4 01       	movw	r24, r8
     45e:	99 0c       	add	r9, r9
     460:	aa 0b       	sbc	r26, r26
     462:	bb 0b       	sbc	r27, r27
     464:	01 97       	sbiw	r24, 0x01	; 1
     466:	a1 09       	sbc	r26, r1
     468:	b1 09       	sbc	r27, r1
     46a:	5c 01       	movw	r10, r24
     46c:	aa 0c       	add	r10, r10
     46e:	bb 1c       	adc	r11, r11
     470:	aa 0c       	add	r10, r10
     472:	bb 1c       	adc	r11, r11
     474:	c1 5a       	subi	r28, 0xA1	; 161
     476:	de 4f       	sbci	r29, 0xFE	; 254
     478:	b9 82       	std	Y+1, r11	; 0x01
     47a:	a8 82       	st	Y, r10
     47c:	cf 55       	subi	r28, 0x5F	; 95
     47e:	d1 40       	sbci	r29, 0x01	; 1
     480:	21 2c       	mov	r2, r1
     482:	31 2c       	mov	r3, r1
     484:	41 2c       	mov	r4, r1
     486:	51 2c       	mov	r5, r1
     488:	32 01       	movw	r6, r4
     48a:	cb 5a       	subi	r28, 0xAB	; 171
     48c:	de 4f       	sbci	r29, 0xFE	; 254
     48e:	88 80       	ld	r8, Y
     490:	99 80       	ldd	r9, Y+1	; 0x01
     492:	aa 80       	ldd	r10, Y+2	; 0x02
     494:	bb 80       	ldd	r11, Y+3	; 0x03
     496:	c5 55       	subi	r28, 0x55	; 85
     498:	d1 40       	sbci	r29, 0x01	; 1
     49a:	84 14       	cp	r8, r4
     49c:	95 04       	cpc	r9, r5
     49e:	a6 04       	cpc	r10, r6
     4a0:	b7 04       	cpc	r11, r7
     4a2:	0c f4       	brge	.+2      	; 0x4a6 <__EEPROM_REGION_LENGTH__+0xa6>
     4a4:	84 c0       	rjmp	.+264    	; 0x5ae <__EEPROM_REGION_LENGTH__+0x1ae>
     4a6:	cb 59       	subi	r28, 0x9B	; 155
     4a8:	de 4f       	sbci	r29, 0xFE	; 254
     4aa:	98 80       	ld	r9, Y
     4ac:	c5 56       	subi	r28, 0x65	; 101
     4ae:	d1 40       	sbci	r29, 0x01	; 1
     4b0:	cb 5b       	subi	r28, 0xBB	; 187
     4b2:	de 4f       	sbci	r29, 0xFE	; 254
     4b4:	98 82       	st	Y, r9
     4b6:	c5 54       	subi	r28, 0x45	; 69
     4b8:	d1 40       	sbci	r29, 0x01	; 1
     4ba:	c7 59       	subi	r28, 0x97	; 151
     4bc:	de 4f       	sbci	r29, 0xFE	; 254
     4be:	a8 80       	ld	r10, Y
     4c0:	c9 56       	subi	r28, 0x69	; 105
     4c2:	d1 40       	sbci	r29, 0x01	; 1
     4c4:	ca 5b       	subi	r28, 0xBA	; 186
     4c6:	de 4f       	sbci	r29, 0xFE	; 254
     4c8:	a8 82       	st	Y, r10
     4ca:	c6 54       	subi	r28, 0x46	; 70
     4cc:	d1 40       	sbci	r29, 0x01	; 1
     4ce:	c1 5a       	subi	r28, 0xA1	; 161
     4d0:	de 4f       	sbci	r29, 0xFE	; 254
     4d2:	c8 80       	ld	r12, Y
     4d4:	d9 80       	ldd	r13, Y+1	; 0x01
     4d6:	cf 55       	subi	r28, 0x5F	; 95
     4d8:	d1 40       	sbci	r29, 0x01	; 1
     4da:	c2 0c       	add	r12, r2
     4dc:	d3 1c       	adc	r13, r3
     4de:	c9 59       	subi	r28, 0x99	; 153
     4e0:	de 4f       	sbci	r29, 0xFE	; 254
     4e2:	d9 82       	std	Y+1, r13	; 0x01
     4e4:	c8 82       	st	Y, r12
     4e6:	c7 56       	subi	r28, 0x67	; 103
     4e8:	d1 40       	sbci	r29, 0x01	; 1
     4ea:	00 e0       	ldi	r16, 0x00	; 0
     4ec:	10 e0       	ldi	r17, 0x00	; 0
     4ee:	81 2c       	mov	r8, r1
     4f0:	91 2c       	mov	r9, r1
     4f2:	54 01       	movw	r10, r8
     4f4:	c1 2c       	mov	r12, r1
     4f6:	d1 2c       	mov	r13, r1
     4f8:	76 01       	movw	r14, r12
     4fa:	cf 5a       	subi	r28, 0xAF	; 175
     4fc:	de 4f       	sbci	r29, 0xFE	; 254
     4fe:	28 81       	ld	r18, Y
     500:	39 81       	ldd	r19, Y+1	; 0x01
     502:	4a 81       	ldd	r20, Y+2	; 0x02
     504:	5b 81       	ldd	r21, Y+3	; 0x03
     506:	c1 55       	subi	r28, 0x51	; 81
     508:	d1 40       	sbci	r29, 0x01	; 1
     50a:	2c 15       	cp	r18, r12
     50c:	3d 05       	cpc	r19, r13
     50e:	4e 05       	cpc	r20, r14
     510:	5f 05       	cpc	r21, r15
     512:	a4 f1       	brlt	.+104    	; 0x57c <__EEPROM_REGION_LENGTH__+0x17c>
     514:	c9 59       	subi	r28, 0x99	; 153
     516:	de 4f       	sbci	r29, 0xFE	; 254
     518:	e8 81       	ld	r30, Y
     51a:	f9 81       	ldd	r31, Y+1	; 0x01
     51c:	c7 56       	subi	r28, 0x67	; 103
     51e:	d1 40       	sbci	r29, 0x01	; 1
     520:	e0 0f       	add	r30, r16
     522:	f1 1f       	adc	r31, r17
     524:	21 ea       	ldi	r18, 0xA1	; 161
     526:	30 e0       	ldi	r19, 0x00	; 0
     528:	2c 0f       	add	r18, r28
     52a:	3d 1f       	adc	r19, r29
     52c:	e2 0f       	add	r30, r18
     52e:	f3 1f       	adc	r31, r19
     530:	cb 5b       	subi	r28, 0xBB	; 187
     532:	de 4f       	sbci	r29, 0xFE	; 254
     534:	a8 81       	ld	r26, Y
     536:	b9 81       	ldd	r27, Y+1	; 0x01
     538:	c5 54       	subi	r28, 0x45	; 69
     53a:	d1 40       	sbci	r29, 0x01	; 1
     53c:	2d 91       	ld	r18, X+
     53e:	3d 91       	ld	r19, X+
     540:	4d 91       	ld	r20, X+
     542:	5d 91       	ld	r21, X+
     544:	cb 5b       	subi	r28, 0xBB	; 187
     546:	de 4f       	sbci	r29, 0xFE	; 254
     548:	b9 83       	std	Y+1, r27	; 0x01
     54a:	a8 83       	st	Y, r26
     54c:	c5 54       	subi	r28, 0x45	; 69
     54e:	d1 40       	sbci	r29, 0x01	; 1
     550:	60 81       	ld	r22, Z
     552:	71 81       	ldd	r23, Z+1	; 0x01
     554:	82 81       	ldd	r24, Z+2	; 0x02
     556:	93 81       	ldd	r25, Z+3	; 0x03
     558:	0e 94 60 16 	call	0x2cc0	; 0x2cc0 <__mulsf3>
     55c:	9b 01       	movw	r18, r22
     55e:	ac 01       	movw	r20, r24
     560:	c5 01       	movw	r24, r10
     562:	b4 01       	movw	r22, r8
     564:	0e 94 fe 15 	call	0x2bfc	; 0x2bfc <__addsf3>
     568:	4b 01       	movw	r8, r22
     56a:	5c 01       	movw	r10, r24
     56c:	bf ef       	ldi	r27, 0xFF	; 255
     56e:	cb 1a       	sub	r12, r27
     570:	db 0a       	sbc	r13, r27
     572:	eb 0a       	sbc	r14, r27
     574:	fb 0a       	sbc	r15, r27
     576:	04 50       	subi	r16, 0x04	; 4
     578:	11 09       	sbc	r17, r1
     57a:	bf cf       	rjmp	.-130    	; 0x4fa <__EEPROM_REGION_LENGTH__+0xfa>
     57c:	c3 5b       	subi	r28, 0xB3	; 179
     57e:	de 4f       	sbci	r29, 0xFE	; 254
     580:	a8 81       	ld	r26, Y
     582:	b9 81       	ldd	r27, Y+1	; 0x01
     584:	cd 54       	subi	r28, 0x4D	; 77
     586:	d1 40       	sbci	r29, 0x01	; 1
     588:	8d 92       	st	X+, r8
     58a:	9d 92       	st	X+, r9
     58c:	ad 92       	st	X+, r10
     58e:	bd 92       	st	X+, r11
     590:	c3 5b       	subi	r28, 0xB3	; 179
     592:	de 4f       	sbci	r29, 0xFE	; 254
     594:	b9 83       	std	Y+1, r27	; 0x01
     596:	a8 83       	st	Y, r26
     598:	cd 54       	subi	r28, 0x4D	; 77
     59a:	d1 40       	sbci	r29, 0x01	; 1
     59c:	bf ef       	ldi	r27, 0xFF	; 255
     59e:	4b 1a       	sub	r4, r27
     5a0:	5b 0a       	sbc	r5, r27
     5a2:	6b 0a       	sbc	r6, r27
     5a4:	7b 0a       	sbc	r7, r27
     5a6:	e4 e0       	ldi	r30, 0x04	; 4
     5a8:	2e 0e       	add	r2, r30
     5aa:	31 1c       	adc	r3, r1
     5ac:	6e cf       	rjmp	.-292    	; 0x48a <__EEPROM_REGION_LENGTH__+0x8a>
     5ae:	cb 5a       	subi	r28, 0xAB	; 171
     5b0:	de 4f       	sbci	r29, 0xFE	; 254
     5b2:	88 81       	ld	r24, Y
     5b4:	99 81       	ldd	r25, Y+1	; 0x01
     5b6:	aa 81       	ldd	r26, Y+2	; 0x02
     5b8:	bb 81       	ldd	r27, Y+3	; 0x03
     5ba:	c5 55       	subi	r28, 0x55	; 85
     5bc:	d1 40       	sbci	r29, 0x01	; 1
     5be:	01 97       	sbiw	r24, 0x01	; 1
     5c0:	a1 09       	sbc	r26, r1
     5c2:	b1 09       	sbc	r27, r1
     5c4:	7c 01       	movw	r14, r24
     5c6:	ee 0c       	add	r14, r14
     5c8:	ff 1c       	adc	r15, r15
     5ca:	ee 0c       	add	r14, r14
     5cc:	ff 1c       	adc	r15, r15
     5ce:	c4 59       	subi	r28, 0x94	; 148
     5d0:	de 4f       	sbci	r29, 0xFE	; 254
     5d2:	f9 82       	std	Y+1, r15	; 0x01
     5d4:	e8 82       	st	Y, r14
     5d6:	cc 56       	subi	r28, 0x6C	; 108
     5d8:	d1 40       	sbci	r29, 0x01	; 1
     5da:	cb 5a       	subi	r28, 0xAB	; 171
     5dc:	de 4f       	sbci	r29, 0xFE	; 254
     5de:	48 80       	ld	r4, Y
     5e0:	59 80       	ldd	r5, Y+1	; 0x01
     5e2:	6a 80       	ldd	r6, Y+2	; 0x02
     5e4:	7b 80       	ldd	r7, Y+3	; 0x03
     5e6:	c5 55       	subi	r28, 0x55	; 85
     5e8:	d1 40       	sbci	r29, 0x01	; 1
     5ea:	c7 5b       	subi	r28, 0xB7	; 183
     5ec:	de 4f       	sbci	r29, 0xFE	; 254
     5ee:	88 81       	ld	r24, Y
     5f0:	99 81       	ldd	r25, Y+1	; 0x01
     5f2:	c9 54       	subi	r28, 0x49	; 73
     5f4:	d1 40       	sbci	r29, 0x01	; 1
     5f6:	01 97       	sbiw	r24, 0x01	; 1
     5f8:	4c 01       	movw	r8, r24
     5fa:	99 0f       	add	r25, r25
     5fc:	aa 08       	sbc	r10, r10
     5fe:	bb 08       	sbc	r11, r11
     600:	c2 59       	subi	r28, 0x92	; 146
     602:	de 4f       	sbci	r29, 0xFE	; 254
     604:	88 82       	st	Y, r8
     606:	99 82       	std	Y+1, r9	; 0x01
     608:	aa 82       	std	Y+2, r10	; 0x02
     60a:	bb 82       	std	Y+3, r11	; 0x03
     60c:	ce 56       	subi	r28, 0x6E	; 110
     60e:	d1 40       	sbci	r29, 0x01	; 1
     610:	52 01       	movw	r10, r4
     612:	aa 0c       	add	r10, r10
     614:	bb 1c       	adc	r11, r11
     616:	aa 0c       	add	r10, r10
     618:	bb 1c       	adc	r11, r11
     61a:	c3 5b       	subi	r28, 0xB3	; 179
     61c:	de 4f       	sbci	r29, 0xFE	; 254
     61e:	b9 82       	std	Y+1, r11	; 0x01
     620:	a8 82       	st	Y, r10
     622:	cd 54       	subi	r28, 0x4D	; 77
     624:	d1 40       	sbci	r29, 0x01	; 1
     626:	e1 e0       	ldi	r30, 0x01	; 1
     628:	f0 e0       	ldi	r31, 0x00	; 0
     62a:	ec 0f       	add	r30, r28
     62c:	fd 1f       	adc	r31, r29
     62e:	ea 0d       	add	r30, r10
     630:	fb 1d       	adc	r31, r11
     632:	c0 80       	ld	r12, Z
     634:	d1 80       	ldd	r13, Z+1	; 0x01
     636:	e2 80       	ldd	r14, Z+2	; 0x02
     638:	f3 80       	ldd	r15, Z+3	; 0x03
     63a:	1e 01       	movw	r2, r28
     63c:	01 ef       	ldi	r16, 0xF1	; 241
     63e:	20 0e       	add	r2, r16
     640:	31 1c       	adc	r3, r1
     642:	d3 01       	movw	r26, r6
     644:	c2 01       	movw	r24, r4
     646:	01 97       	sbiw	r24, 0x01	; 1
     648:	a1 09       	sbc	r26, r1
     64a:	b1 09       	sbc	r27, r1
     64c:	4c 01       	movw	r8, r24
     64e:	88 0c       	add	r8, r8
     650:	99 1c       	adc	r9, r9
     652:	88 0c       	add	r8, r8
     654:	99 1c       	adc	r9, r9
     656:	c1 5a       	subi	r28, 0xA1	; 161
     658:	de 4f       	sbci	r29, 0xFE	; 254
     65a:	99 82       	std	Y+1, r9	; 0x01
     65c:	88 82       	st	Y, r8
     65e:	cf 55       	subi	r28, 0x5F	; 95
     660:	d1 40       	sbci	r29, 0x01	; 1
     662:	cb 5b       	subi	r28, 0xBB	; 187
     664:	de 4f       	sbci	r29, 0xFE	; 254
     666:	39 82       	std	Y+1, r3	; 0x01
     668:	28 82       	st	Y, r2
     66a:	c5 54       	subi	r28, 0x45	; 69
     66c:	d1 40       	sbci	r29, 0x01	; 1
     66e:	53 01       	movw	r10, r6
     670:	42 01       	movw	r8, r4
     672:	00 e0       	ldi	r16, 0x00	; 0
     674:	10 e0       	ldi	r17, 0x00	; 0
     676:	18 14       	cp	r1, r8
     678:	19 04       	cpc	r1, r9
     67a:	1a 04       	cpc	r1, r10
     67c:	1b 04       	cpc	r1, r11
     67e:	0c f0       	brlt	.+2      	; 0x682 <__EEPROM_REGION_LENGTH__+0x282>
     680:	59 c0       	rjmp	.+178    	; 0x734 <__EEPROM_REGION_LENGTH__+0x334>
     682:	20 e0       	ldi	r18, 0x00	; 0
     684:	30 e0       	ldi	r19, 0x00	; 0
     686:	40 e8       	ldi	r20, 0x80	; 128
     688:	53 e3       	ldi	r21, 0x33	; 51
     68a:	c7 01       	movw	r24, r14
     68c:	b6 01       	movw	r22, r12
     68e:	0e 94 60 16 	call	0x2cc0	; 0x2cc0 <__mulsf3>
     692:	0e 94 04 16 	call	0x2c08	; 0x2c08 <__fixsfsi>
     696:	0e 94 51 13 	call	0x26a2	; 0x26a2 <__floatsisf>
     69a:	c7 5b       	subi	r28, 0xB7	; 183
     69c:	de 4f       	sbci	r29, 0xFE	; 254
     69e:	68 83       	st	Y, r22
     6a0:	79 83       	std	Y+1, r23	; 0x01
     6a2:	8a 83       	std	Y+2, r24	; 0x02
     6a4:	9b 83       	std	Y+3, r25	; 0x03
     6a6:	c9 54       	subi	r28, 0x49	; 73
     6a8:	d1 40       	sbci	r29, 0x01	; 1
     6aa:	20 e0       	ldi	r18, 0x00	; 0
     6ac:	30 e0       	ldi	r19, 0x00	; 0
     6ae:	40 e8       	ldi	r20, 0x80	; 128
     6b0:	5b e4       	ldi	r21, 0x4B	; 75
     6b2:	0e 94 60 16 	call	0x2cc0	; 0x2cc0 <__mulsf3>
     6b6:	9b 01       	movw	r18, r22
     6b8:	ac 01       	movw	r20, r24
     6ba:	c7 01       	movw	r24, r14
     6bc:	b6 01       	movw	r22, r12
     6be:	0e 94 fd 15 	call	0x2bfa	; 0x2bfa <__subsf3>
     6c2:	0e 94 04 16 	call	0x2c08	; 0x2c08 <__fixsfsi>
     6c6:	cb 5b       	subi	r28, 0xBB	; 187
     6c8:	de 4f       	sbci	r29, 0xFE	; 254
     6ca:	a8 81       	ld	r26, Y
     6cc:	b9 81       	ldd	r27, Y+1	; 0x01
     6ce:	c5 54       	subi	r28, 0x45	; 69
     6d0:	d1 40       	sbci	r29, 0x01	; 1
     6d2:	6d 93       	st	X+, r22
     6d4:	7d 93       	st	X+, r23
     6d6:	8d 93       	st	X+, r24
     6d8:	9d 93       	st	X+, r25
     6da:	cb 5b       	subi	r28, 0xBB	; 187
     6dc:	de 4f       	sbci	r29, 0xFE	; 254
     6de:	b9 83       	std	Y+1, r27	; 0x01
     6e0:	a8 83       	st	Y, r26
     6e2:	c5 54       	subi	r28, 0x45	; 69
     6e4:	d1 40       	sbci	r29, 0x01	; 1
     6e6:	b1 e0       	ldi	r27, 0x01	; 1
     6e8:	8b 1a       	sub	r8, r27
     6ea:	91 08       	sbc	r9, r1
     6ec:	a1 08       	sbc	r10, r1
     6ee:	b1 08       	sbc	r11, r1
     6f0:	c1 5a       	subi	r28, 0xA1	; 161
     6f2:	de 4f       	sbci	r29, 0xFE	; 254
     6f4:	e8 81       	ld	r30, Y
     6f6:	f9 81       	ldd	r31, Y+1	; 0x01
     6f8:	cf 55       	subi	r28, 0x5F	; 95
     6fa:	d1 40       	sbci	r29, 0x01	; 1
     6fc:	e0 0f       	add	r30, r16
     6fe:	f1 1f       	adc	r31, r17
     700:	cc 24       	eor	r12, r12
     702:	c3 94       	inc	r12
     704:	d1 2c       	mov	r13, r1
     706:	cc 0e       	add	r12, r28
     708:	dd 1e       	adc	r13, r29
     70a:	ec 0d       	add	r30, r12
     70c:	fd 1d       	adc	r31, r13
     70e:	20 81       	ld	r18, Z
     710:	31 81       	ldd	r19, Z+1	; 0x01
     712:	42 81       	ldd	r20, Z+2	; 0x02
     714:	53 81       	ldd	r21, Z+3	; 0x03
     716:	c7 5b       	subi	r28, 0xB7	; 183
     718:	de 4f       	sbci	r29, 0xFE	; 254
     71a:	68 81       	ld	r22, Y
     71c:	79 81       	ldd	r23, Y+1	; 0x01
     71e:	8a 81       	ldd	r24, Y+2	; 0x02
     720:	9b 81       	ldd	r25, Y+3	; 0x03
     722:	c9 54       	subi	r28, 0x49	; 73
     724:	d1 40       	sbci	r29, 0x01	; 1
     726:	0e 94 fe 15 	call	0x2bfc	; 0x2bfc <__addsf3>
     72a:	6b 01       	movw	r12, r22
     72c:	7c 01       	movw	r14, r24
     72e:	04 50       	subi	r16, 0x04	; 4
     730:	11 09       	sbc	r17, r1
     732:	a1 cf       	rjmp	.-190    	; 0x676 <__EEPROM_REGION_LENGTH__+0x276>
     734:	cf 5b       	subi	r28, 0xBF	; 191
     736:	de 4f       	sbci	r29, 0xFE	; 254
     738:	08 81       	ld	r16, Y
     73a:	19 81       	ldd	r17, Y+1	; 0x01
     73c:	c1 54       	subi	r28, 0x41	; 65
     73e:	d1 40       	sbci	r29, 0x01	; 1
     740:	a8 01       	movw	r20, r16
     742:	c7 01       	movw	r24, r14
     744:	b6 01       	movw	r22, r12
     746:	0e 94 b7 12 	call	0x256e	; 0x256e <scalbnf>
     74a:	6b 01       	movw	r12, r22
     74c:	7c 01       	movw	r14, r24
     74e:	20 e0       	ldi	r18, 0x00	; 0
     750:	30 e0       	ldi	r19, 0x00	; 0
     752:	40 e0       	ldi	r20, 0x00	; 0
     754:	5e e3       	ldi	r21, 0x3E	; 62
     756:	0e 94 60 16 	call	0x2cc0	; 0x2cc0 <__mulsf3>
     75a:	0e 94 94 0f 	call	0x1f28	; 0x1f28 <floorf>
     75e:	20 e0       	ldi	r18, 0x00	; 0
     760:	30 e0       	ldi	r19, 0x00	; 0
     762:	40 e0       	ldi	r20, 0x00	; 0
     764:	51 e4       	ldi	r21, 0x41	; 65
     766:	0e 94 60 16 	call	0x2cc0	; 0x2cc0 <__mulsf3>
     76a:	9b 01       	movw	r18, r22
     76c:	ac 01       	movw	r20, r24
     76e:	c7 01       	movw	r24, r14
     770:	b6 01       	movw	r22, r12
     772:	0e 94 fd 15 	call	0x2bfa	; 0x2bfa <__subsf3>
     776:	6b 01       	movw	r12, r22
     778:	7c 01       	movw	r14, r24
     77a:	0e 94 04 16 	call	0x2c08	; 0x2c08 <__fixsfsi>
     77e:	c7 5b       	subi	r28, 0xB7	; 183
     780:	de 4f       	sbci	r29, 0xFE	; 254
     782:	68 83       	st	Y, r22
     784:	79 83       	std	Y+1, r23	; 0x01
     786:	8a 83       	std	Y+2, r24	; 0x02
     788:	9b 83       	std	Y+3, r25	; 0x03
     78a:	c9 54       	subi	r28, 0x49	; 73
     78c:	d1 40       	sbci	r29, 0x01	; 1
     78e:	0e 94 51 13 	call	0x26a2	; 0x26a2 <__floatsisf>
     792:	9b 01       	movw	r18, r22
     794:	ac 01       	movw	r20, r24
     796:	c7 01       	movw	r24, r14
     798:	b6 01       	movw	r22, r12
     79a:	0e 94 fd 15 	call	0x2bfa	; 0x2bfa <__subsf3>
     79e:	6b 01       	movw	r12, r22
     7a0:	7c 01       	movw	r14, r24
     7a2:	cf 5b       	subi	r28, 0xBF	; 191
     7a4:	de 4f       	sbci	r29, 0xFE	; 254
     7a6:	88 80       	ld	r8, Y
     7a8:	99 80       	ldd	r9, Y+1	; 0x01
     7aa:	aa 80       	ldd	r10, Y+2	; 0x02
     7ac:	bb 80       	ldd	r11, Y+3	; 0x03
     7ae:	c1 54       	subi	r28, 0x41	; 65
     7b0:	d1 40       	sbci	r29, 0x01	; 1
     7b2:	18 14       	cp	r1, r8
     7b4:	19 04       	cpc	r1, r9
     7b6:	1a 04       	cpc	r1, r10
     7b8:	1b 04       	cpc	r1, r11
     7ba:	0c f0       	brlt	.+2      	; 0x7be <__EEPROM_REGION_LENGTH__+0x3be>
     7bc:	5a c0       	rjmp	.+180    	; 0x872 <__DATA_REGION_LENGTH__+0x72>
     7be:	d3 01       	movw	r26, r6
     7c0:	c2 01       	movw	r24, r4
     7c2:	01 97       	sbiw	r24, 0x01	; 1
     7c4:	a1 09       	sbc	r26, r1
     7c6:	b1 09       	sbc	r27, r1
     7c8:	fc 01       	movw	r30, r24
     7ca:	ee 0f       	add	r30, r30
     7cc:	ff 1f       	adc	r31, r31
     7ce:	ee 0f       	add	r30, r30
     7d0:	ff 1f       	adc	r31, r31
     7d2:	71 ef       	ldi	r23, 0xF1	; 241
     7d4:	a7 2e       	mov	r10, r23
     7d6:	b1 2c       	mov	r11, r1
     7d8:	ac 0e       	add	r10, r28
     7da:	bd 1e       	adc	r11, r29
     7dc:	ea 0d       	add	r30, r10
     7de:	fb 1d       	adc	r31, r11
     7e0:	80 81       	ld	r24, Z
     7e2:	91 81       	ldd	r25, Z+1	; 0x01
     7e4:	a2 81       	ldd	r26, Z+2	; 0x02
     7e6:	b3 81       	ldd	r27, Z+3	; 0x03
     7e8:	28 e1       	ldi	r18, 0x18	; 24
     7ea:	30 e0       	ldi	r19, 0x00	; 0
     7ec:	28 19       	sub	r18, r8
     7ee:	39 09       	sbc	r19, r9
     7f0:	ac 01       	movw	r20, r24
     7f2:	bd 01       	movw	r22, r26
     7f4:	02 2e       	mov	r0, r18
     7f6:	04 c0       	rjmp	.+8      	; 0x800 <__DATA_REGION_LENGTH__>
     7f8:	75 95       	asr	r23
     7fa:	67 95       	ror	r22
     7fc:	57 95       	ror	r21
     7fe:	47 95       	ror	r20
     800:	0a 94       	dec	r0
     802:	d2 f7       	brpl	.-12     	; 0x7f8 <__EEPROM_REGION_LENGTH__+0x3f8>
     804:	c7 5b       	subi	r28, 0xB7	; 183
     806:	de 4f       	sbci	r29, 0xFE	; 254
     808:	88 80       	ld	r8, Y
     80a:	99 80       	ldd	r9, Y+1	; 0x01
     80c:	aa 80       	ldd	r10, Y+2	; 0x02
     80e:	bb 80       	ldd	r11, Y+3	; 0x03
     810:	c9 54       	subi	r28, 0x49	; 73
     812:	d1 40       	sbci	r29, 0x01	; 1
     814:	84 0e       	add	r8, r20
     816:	95 1e       	adc	r9, r21
     818:	a6 1e       	adc	r10, r22
     81a:	b7 1e       	adc	r11, r23
     81c:	c7 5b       	subi	r28, 0xB7	; 183
     81e:	de 4f       	sbci	r29, 0xFE	; 254
     820:	88 82       	st	Y, r8
     822:	99 82       	std	Y+1, r9	; 0x01
     824:	aa 82       	std	Y+2, r10	; 0x02
     826:	bb 82       	std	Y+3, r11	; 0x03
     828:	c9 54       	subi	r28, 0x49	; 73
     82a:	d1 40       	sbci	r29, 0x01	; 1
     82c:	04 c0       	rjmp	.+8      	; 0x836 <__DATA_REGION_LENGTH__+0x36>
     82e:	44 0f       	add	r20, r20
     830:	55 1f       	adc	r21, r21
     832:	66 1f       	adc	r22, r22
     834:	77 1f       	adc	r23, r23
     836:	2a 95       	dec	r18
     838:	d2 f7       	brpl	.-12     	; 0x82e <__DATA_REGION_LENGTH__+0x2e>
     83a:	84 1b       	sub	r24, r20
     83c:	95 0b       	sbc	r25, r21
     83e:	a6 0b       	sbc	r26, r22
     840:	b7 0b       	sbc	r27, r23
     842:	80 83       	st	Z, r24
     844:	91 83       	std	Z+1, r25	; 0x01
     846:	a2 83       	std	Z+2, r26	; 0x02
     848:	b3 83       	std	Z+3, r27	; 0x03
     84a:	27 e1       	ldi	r18, 0x17	; 23
     84c:	30 e0       	ldi	r19, 0x00	; 0
     84e:	cf 5b       	subi	r28, 0xBF	; 191
     850:	de 4f       	sbci	r29, 0xFE	; 254
     852:	a8 80       	ld	r10, Y
     854:	b9 80       	ldd	r11, Y+1	; 0x01
     856:	c1 54       	subi	r28, 0x41	; 65
     858:	d1 40       	sbci	r29, 0x01	; 1
     85a:	2a 19       	sub	r18, r10
     85c:	3b 09       	sbc	r19, r11
     85e:	4c 01       	movw	r8, r24
     860:	5d 01       	movw	r10, r26
     862:	04 c0       	rjmp	.+8      	; 0x86c <__DATA_REGION_LENGTH__+0x6c>
     864:	b5 94       	asr	r11
     866:	a7 94       	ror	r10
     868:	97 94       	ror	r9
     86a:	87 94       	ror	r8
     86c:	2a 95       	dec	r18
     86e:	d2 f7       	brpl	.-12     	; 0x864 <__DATA_REGION_LENGTH__+0x64>
     870:	28 c0       	rjmp	.+80     	; 0x8c2 <__DATA_REGION_LENGTH__+0xc2>
     872:	cf 5b       	subi	r28, 0xBF	; 191
     874:	de 4f       	sbci	r29, 0xFE	; 254
     876:	88 80       	ld	r8, Y
     878:	99 80       	ldd	r9, Y+1	; 0x01
     87a:	aa 80       	ldd	r10, Y+2	; 0x02
     87c:	bb 80       	ldd	r11, Y+3	; 0x03
     87e:	c1 54       	subi	r28, 0x41	; 65
     880:	d1 40       	sbci	r29, 0x01	; 1
     882:	89 28       	or	r8, r9
     884:	8a 28       	or	r8, r10
     886:	8b 28       	or	r8, r11
     888:	91 f5       	brne	.+100    	; 0x8ee <__DATA_REGION_LENGTH__+0xee>
     88a:	d3 01       	movw	r26, r6
     88c:	c2 01       	movw	r24, r4
     88e:	01 97       	sbiw	r24, 0x01	; 1
     890:	a1 09       	sbc	r26, r1
     892:	b1 09       	sbc	r27, r1
     894:	88 0f       	add	r24, r24
     896:	99 1f       	adc	r25, r25
     898:	88 0f       	add	r24, r24
     89a:	99 1f       	adc	r25, r25
     89c:	e1 ef       	ldi	r30, 0xF1	; 241
     89e:	f0 e0       	ldi	r31, 0x00	; 0
     8a0:	ec 0f       	add	r30, r28
     8a2:	fd 1f       	adc	r31, r29
     8a4:	e8 0f       	add	r30, r24
     8a6:	f9 1f       	adc	r31, r25
     8a8:	80 81       	ld	r24, Z
     8aa:	91 81       	ldd	r25, Z+1	; 0x01
     8ac:	a2 81       	ldd	r26, Z+2	; 0x02
     8ae:	b3 81       	ldd	r27, Z+3	; 0x03
     8b0:	4c 01       	movw	r8, r24
     8b2:	5d 01       	movw	r10, r26
     8b4:	57 e1       	ldi	r21, 0x17	; 23
     8b6:	b5 94       	asr	r11
     8b8:	a7 94       	ror	r10
     8ba:	97 94       	ror	r9
     8bc:	87 94       	ror	r8
     8be:	5a 95       	dec	r21
     8c0:	d1 f7       	brne	.-12     	; 0x8b6 <__DATA_REGION_LENGTH__+0xb6>
     8c2:	cb 5b       	subi	r28, 0xBB	; 187
     8c4:	de 4f       	sbci	r29, 0xFE	; 254
     8c6:	88 82       	st	Y, r8
     8c8:	99 82       	std	Y+1, r9	; 0x01
     8ca:	aa 82       	std	Y+2, r10	; 0x02
     8cc:	bb 82       	std	Y+3, r11	; 0x03
     8ce:	c5 54       	subi	r28, 0x45	; 69
     8d0:	d1 40       	sbci	r29, 0x01	; 1
     8d2:	cb 5b       	subi	r28, 0xBB	; 187
     8d4:	de 4f       	sbci	r29, 0xFE	; 254
     8d6:	88 80       	ld	r8, Y
     8d8:	99 80       	ldd	r9, Y+1	; 0x01
     8da:	aa 80       	ldd	r10, Y+2	; 0x02
     8dc:	bb 80       	ldd	r11, Y+3	; 0x03
     8de:	c5 54       	subi	r28, 0x45	; 69
     8e0:	d1 40       	sbci	r29, 0x01	; 1
     8e2:	18 14       	cp	r1, r8
     8e4:	19 04       	cpc	r1, r9
     8e6:	1a 04       	cpc	r1, r10
     8e8:	1b 04       	cpc	r1, r11
     8ea:	fc f0       	brlt	.+62     	; 0x92a <__stack+0x2b>
     8ec:	e2 c0       	rjmp	.+452    	; 0xab2 <__stack+0x1b3>
     8ee:	20 e0       	ldi	r18, 0x00	; 0
     8f0:	30 e0       	ldi	r19, 0x00	; 0
     8f2:	40 e0       	ldi	r20, 0x00	; 0
     8f4:	5f e3       	ldi	r21, 0x3F	; 63
     8f6:	0e 94 53 16 	call	0x2ca6	; 0x2ca6 <__gesf2>
     8fa:	87 ff       	sbrs	r24, 7
     8fc:	09 c0       	rjmp	.+18     	; 0x910 <__stack+0x11>
     8fe:	cb 5b       	subi	r28, 0xBB	; 187
     900:	de 4f       	sbci	r29, 0xFE	; 254
     902:	18 82       	st	Y, r1
     904:	19 82       	std	Y+1, r1	; 0x01
     906:	1a 82       	std	Y+2, r1	; 0x02
     908:	1b 82       	std	Y+3, r1	; 0x03
     90a:	c5 54       	subi	r28, 0x45	; 69
     90c:	d1 40       	sbci	r29, 0x01	; 1
     90e:	d1 c0       	rjmp	.+418    	; 0xab2 <__stack+0x1b3>
     910:	32 e0       	ldi	r19, 0x02	; 2
     912:	83 2e       	mov	r8, r19
     914:	91 2c       	mov	r9, r1
     916:	a1 2c       	mov	r10, r1
     918:	b1 2c       	mov	r11, r1
     91a:	cb 5b       	subi	r28, 0xBB	; 187
     91c:	de 4f       	sbci	r29, 0xFE	; 254
     91e:	88 82       	st	Y, r8
     920:	99 82       	std	Y+1, r9	; 0x01
     922:	aa 82       	std	Y+2, r10	; 0x02
     924:	bb 82       	std	Y+3, r11	; 0x03
     926:	c5 54       	subi	r28, 0x45	; 69
     928:	d1 40       	sbci	r29, 0x01	; 1
     92a:	c7 5b       	subi	r28, 0xB7	; 183
     92c:	de 4f       	sbci	r29, 0xFE	; 254
     92e:	28 81       	ld	r18, Y
     930:	39 81       	ldd	r19, Y+1	; 0x01
     932:	4a 81       	ldd	r20, Y+2	; 0x02
     934:	5b 81       	ldd	r21, Y+3	; 0x03
     936:	c9 54       	subi	r28, 0x49	; 73
     938:	d1 40       	sbci	r29, 0x01	; 1
     93a:	2f 5f       	subi	r18, 0xFF	; 255
     93c:	3f 4f       	sbci	r19, 0xFF	; 255
     93e:	4f 4f       	sbci	r20, 0xFF	; 255
     940:	5f 4f       	sbci	r21, 0xFF	; 255
     942:	c7 5b       	subi	r28, 0xB7	; 183
     944:	de 4f       	sbci	r29, 0xFE	; 254
     946:	28 83       	st	Y, r18
     948:	39 83       	std	Y+1, r19	; 0x01
     94a:	4a 83       	std	Y+2, r20	; 0x02
     94c:	5b 83       	std	Y+3, r21	; 0x03
     94e:	c9 54       	subi	r28, 0x49	; 73
     950:	d1 40       	sbci	r29, 0x01	; 1
     952:	80 e0       	ldi	r24, 0x00	; 0
     954:	90 e0       	ldi	r25, 0x00	; 0
     956:	dc 01       	movw	r26, r24
     958:	81 2c       	mov	r8, r1
     95a:	91 2c       	mov	r9, r1
     95c:	54 01       	movw	r10, r8
     95e:	84 15       	cp	r24, r4
     960:	95 05       	cpc	r25, r5
     962:	a6 05       	cpc	r26, r6
     964:	b7 05       	cpc	r27, r7
     966:	ac f5       	brge	.+106    	; 0x9d2 <__stack+0xd3>
     968:	f1 01       	movw	r30, r2
     96a:	40 81       	ld	r20, Z
     96c:	51 81       	ldd	r21, Z+1	; 0x01
     96e:	62 81       	ldd	r22, Z+2	; 0x02
     970:	73 81       	ldd	r23, Z+3	; 0x03
     972:	81 14       	cp	r8, r1
     974:	91 04       	cpc	r9, r1
     976:	a1 04       	cpc	r10, r1
     978:	b1 04       	cpc	r11, r1
     97a:	81 f4       	brne	.+32     	; 0x99c <__stack+0x9d>
     97c:	41 15       	cp	r20, r1
     97e:	51 05       	cpc	r21, r1
     980:	61 05       	cpc	r22, r1
     982:	71 05       	cpc	r23, r1
     984:	f9 f0       	breq	.+62     	; 0x9c4 <__stack+0xc5>
     986:	81 2c       	mov	r8, r1
     988:	91 2c       	mov	r9, r1
     98a:	54 01       	movw	r10, r8
     98c:	b3 94       	inc	r11
     98e:	84 1a       	sub	r8, r20
     990:	95 0a       	sbc	r9, r21
     992:	a6 0a       	sbc	r10, r22
     994:	b7 0a       	sbc	r11, r23
     996:	b5 01       	movw	r22, r10
     998:	a4 01       	movw	r20, r8
     99a:	0c c0       	rjmp	.+24     	; 0x9b4 <__stack+0xb5>
     99c:	88 24       	eor	r8, r8
     99e:	8a 94       	dec	r8
     9a0:	98 2c       	mov	r9, r8
     9a2:	a8 2c       	mov	r10, r8
     9a4:	b1 2c       	mov	r11, r1
     9a6:	84 1a       	sub	r8, r20
     9a8:	95 0a       	sbc	r9, r21
     9aa:	a6 0a       	sbc	r10, r22
     9ac:	b7 0a       	sbc	r11, r23
     9ae:	b5 01       	movw	r22, r10
     9b0:	a4 01       	movw	r20, r8
     9b2:	f1 01       	movw	r30, r2
     9b4:	40 83       	st	Z, r20
     9b6:	51 83       	std	Z+1, r21	; 0x01
     9b8:	62 83       	std	Z+2, r22	; 0x02
     9ba:	73 83       	std	Z+3, r23	; 0x03
     9bc:	81 2c       	mov	r8, r1
     9be:	91 2c       	mov	r9, r1
     9c0:	54 01       	movw	r10, r8
     9c2:	83 94       	inc	r8
     9c4:	01 96       	adiw	r24, 0x01	; 1
     9c6:	a1 1d       	adc	r26, r1
     9c8:	b1 1d       	adc	r27, r1
     9ca:	f4 e0       	ldi	r31, 0x04	; 4
     9cc:	2f 0e       	add	r2, r31
     9ce:	31 1c       	adc	r3, r1
     9d0:	c6 cf       	rjmp	.-116    	; 0x95e <__stack+0x5f>
     9d2:	cf 5b       	subi	r28, 0xBF	; 191
     9d4:	de 4f       	sbci	r29, 0xFE	; 254
     9d6:	28 81       	ld	r18, Y
     9d8:	39 81       	ldd	r19, Y+1	; 0x01
     9da:	4a 81       	ldd	r20, Y+2	; 0x02
     9dc:	5b 81       	ldd	r21, Y+3	; 0x03
     9de:	c1 54       	subi	r28, 0x41	; 65
     9e0:	d1 40       	sbci	r29, 0x01	; 1
     9e2:	12 16       	cp	r1, r18
     9e4:	13 06       	cpc	r1, r19
     9e6:	14 06       	cpc	r1, r20
     9e8:	15 06       	cpc	r1, r21
     9ea:	cc f5       	brge	.+114    	; 0xa5e <__stack+0x15f>
     9ec:	21 30       	cpi	r18, 0x01	; 1
     9ee:	31 05       	cpc	r19, r1
     9f0:	41 05       	cpc	r20, r1
     9f2:	51 05       	cpc	r21, r1
     9f4:	d9 f0       	breq	.+54     	; 0xa2c <__stack+0x12d>
     9f6:	22 30       	cpi	r18, 0x02	; 2
     9f8:	31 05       	cpc	r19, r1
     9fa:	41 05       	cpc	r20, r1
     9fc:	51 05       	cpc	r21, r1
     9fe:	79 f5       	brne	.+94     	; 0xa5e <__stack+0x15f>
     a00:	d3 01       	movw	r26, r6
     a02:	c2 01       	movw	r24, r4
     a04:	01 97       	sbiw	r24, 0x01	; 1
     a06:	a1 09       	sbc	r26, r1
     a08:	b1 09       	sbc	r27, r1
     a0a:	88 0f       	add	r24, r24
     a0c:	99 1f       	adc	r25, r25
     a0e:	88 0f       	add	r24, r24
     a10:	99 1f       	adc	r25, r25
     a12:	e1 ef       	ldi	r30, 0xF1	; 241
     a14:	f0 e0       	ldi	r31, 0x00	; 0
     a16:	ec 0f       	add	r30, r28
     a18:	fd 1f       	adc	r31, r29
     a1a:	e8 0f       	add	r30, r24
     a1c:	f9 1f       	adc	r31, r25
     a1e:	40 81       	ld	r20, Z
     a20:	51 81       	ldd	r21, Z+1	; 0x01
     a22:	62 81       	ldd	r22, Z+2	; 0x02
     a24:	73 81       	ldd	r23, Z+3	; 0x03
     a26:	6f 73       	andi	r22, 0x3F	; 63
     a28:	77 27       	eor	r23, r23
     a2a:	15 c0       	rjmp	.+42     	; 0xa56 <__stack+0x157>
     a2c:	d3 01       	movw	r26, r6
     a2e:	c2 01       	movw	r24, r4
     a30:	01 97       	sbiw	r24, 0x01	; 1
     a32:	a1 09       	sbc	r26, r1
     a34:	b1 09       	sbc	r27, r1
     a36:	88 0f       	add	r24, r24
     a38:	99 1f       	adc	r25, r25
     a3a:	88 0f       	add	r24, r24
     a3c:	99 1f       	adc	r25, r25
     a3e:	e1 ef       	ldi	r30, 0xF1	; 241
     a40:	f0 e0       	ldi	r31, 0x00	; 0
     a42:	ec 0f       	add	r30, r28
     a44:	fd 1f       	adc	r31, r29
     a46:	e8 0f       	add	r30, r24
     a48:	f9 1f       	adc	r31, r25
     a4a:	40 81       	ld	r20, Z
     a4c:	51 81       	ldd	r21, Z+1	; 0x01
     a4e:	62 81       	ldd	r22, Z+2	; 0x02
     a50:	73 81       	ldd	r23, Z+3	; 0x03
     a52:	6f 77       	andi	r22, 0x7F	; 127
     a54:	77 27       	eor	r23, r23
     a56:	40 83       	st	Z, r20
     a58:	51 83       	std	Z+1, r21	; 0x01
     a5a:	62 83       	std	Z+2, r22	; 0x02
     a5c:	73 83       	std	Z+3, r23	; 0x03
     a5e:	cb 5b       	subi	r28, 0xBB	; 187
     a60:	de 4f       	sbci	r29, 0xFE	; 254
     a62:	48 81       	ld	r20, Y
     a64:	59 81       	ldd	r21, Y+1	; 0x01
     a66:	6a 81       	ldd	r22, Y+2	; 0x02
     a68:	7b 81       	ldd	r23, Y+3	; 0x03
     a6a:	c5 54       	subi	r28, 0x45	; 69
     a6c:	d1 40       	sbci	r29, 0x01	; 1
     a6e:	42 30       	cpi	r20, 0x02	; 2
     a70:	51 05       	cpc	r21, r1
     a72:	61 05       	cpc	r22, r1
     a74:	71 05       	cpc	r23, r1
     a76:	e9 f4       	brne	.+58     	; 0xab2 <__stack+0x1b3>
     a78:	a7 01       	movw	r20, r14
     a7a:	96 01       	movw	r18, r12
     a7c:	60 e0       	ldi	r22, 0x00	; 0
     a7e:	70 e0       	ldi	r23, 0x00	; 0
     a80:	80 e8       	ldi	r24, 0x80	; 128
     a82:	9f e3       	ldi	r25, 0x3F	; 63
     a84:	0e 94 fd 15 	call	0x2bfa	; 0x2bfa <__subsf3>
     a88:	6b 01       	movw	r12, r22
     a8a:	7c 01       	movw	r14, r24
     a8c:	89 28       	or	r8, r9
     a8e:	8a 28       	or	r8, r10
     a90:	8b 28       	or	r8, r11
     a92:	79 f0       	breq	.+30     	; 0xab2 <__stack+0x1b3>
     a94:	a8 01       	movw	r20, r16
     a96:	60 e0       	ldi	r22, 0x00	; 0
     a98:	70 e0       	ldi	r23, 0x00	; 0
     a9a:	80 e8       	ldi	r24, 0x80	; 128
     a9c:	9f e3       	ldi	r25, 0x3F	; 63
     a9e:	0e 94 b7 12 	call	0x256e	; 0x256e <scalbnf>
     aa2:	9b 01       	movw	r18, r22
     aa4:	ac 01       	movw	r20, r24
     aa6:	c7 01       	movw	r24, r14
     aa8:	b6 01       	movw	r22, r12
     aaa:	0e 94 fd 15 	call	0x2bfa	; 0x2bfa <__subsf3>
     aae:	6b 01       	movw	r12, r22
     ab0:	7c 01       	movw	r14, r24
     ab2:	20 e0       	ldi	r18, 0x00	; 0
     ab4:	30 e0       	ldi	r19, 0x00	; 0
     ab6:	a9 01       	movw	r20, r18
     ab8:	c7 01       	movw	r24, r14
     aba:	b6 01       	movw	r22, r12
     abc:	0e 94 49 16 	call	0x2c92	; 0x2c92 <__cmpsf2>
     ac0:	81 11       	cpse	r24, r1
     ac2:	cf c1       	rjmp	.+926    	; 0xe62 <__stack+0x563>
     ac4:	73 01       	movw	r14, r6
     ac6:	62 01       	movw	r12, r4
     ac8:	51 e0       	ldi	r21, 0x01	; 1
     aca:	c5 1a       	sub	r12, r21
     acc:	d1 08       	sbc	r13, r1
     ace:	e1 08       	sbc	r14, r1
     ad0:	f1 08       	sbc	r15, r1
     ad2:	b3 01       	movw	r22, r6
     ad4:	a2 01       	movw	r20, r4
     ad6:	20 e0       	ldi	r18, 0x00	; 0
     ad8:	30 e0       	ldi	r19, 0x00	; 0
     ada:	80 e0       	ldi	r24, 0x00	; 0
     adc:	90 e0       	ldi	r25, 0x00	; 0
     ade:	dc 01       	movw	r26, r24
     ae0:	41 50       	subi	r20, 0x01	; 1
     ae2:	51 09       	sbc	r21, r1
     ae4:	61 09       	sbc	r22, r1
     ae6:	71 09       	sbc	r23, r1
     ae8:	cb 5a       	subi	r28, 0xAB	; 171
     aea:	de 4f       	sbci	r29, 0xFE	; 254
     aec:	88 80       	ld	r8, Y
     aee:	99 80       	ldd	r9, Y+1	; 0x01
     af0:	aa 80       	ldd	r10, Y+2	; 0x02
     af2:	bb 80       	ldd	r11, Y+3	; 0x03
     af4:	c5 55       	subi	r28, 0x55	; 85
     af6:	d1 40       	sbci	r29, 0x01	; 1
     af8:	48 15       	cp	r20, r8
     afa:	59 05       	cpc	r21, r9
     afc:	6a 05       	cpc	r22, r10
     afe:	7b 05       	cpc	r23, r11
     b00:	d4 f0       	brlt	.+52     	; 0xb36 <__stack+0x237>
     b02:	c1 5a       	subi	r28, 0xA1	; 161
     b04:	de 4f       	sbci	r29, 0xFE	; 254
     b06:	e8 81       	ld	r30, Y
     b08:	f9 81       	ldd	r31, Y+1	; 0x01
     b0a:	cf 55       	subi	r28, 0x5F	; 95
     b0c:	d1 40       	sbci	r29, 0x01	; 1
     b0e:	e2 0f       	add	r30, r18
     b10:	f3 1f       	adc	r31, r19
     b12:	11 ef       	ldi	r17, 0xF1	; 241
     b14:	81 2e       	mov	r8, r17
     b16:	91 2c       	mov	r9, r1
     b18:	8c 0e       	add	r8, r28
     b1a:	9d 1e       	adc	r9, r29
     b1c:	e8 0d       	add	r30, r8
     b1e:	f9 1d       	adc	r31, r9
     b20:	80 80       	ld	r8, Z
     b22:	91 80       	ldd	r9, Z+1	; 0x01
     b24:	a2 80       	ldd	r10, Z+2	; 0x02
     b26:	b3 80       	ldd	r11, Z+3	; 0x03
     b28:	88 29       	or	r24, r8
     b2a:	99 29       	or	r25, r9
     b2c:	aa 29       	or	r26, r10
     b2e:	bb 29       	or	r27, r11
     b30:	24 50       	subi	r18, 0x04	; 4
     b32:	31 09       	sbc	r19, r1
     b34:	d5 cf       	rjmp	.-86     	; 0xae0 <__stack+0x1e1>
     b36:	89 2b       	or	r24, r25
     b38:	8a 2b       	or	r24, r26
     b3a:	8b 2b       	or	r24, r27
     b3c:	09 f0       	breq	.+2      	; 0xb40 <__stack+0x241>
     b3e:	46 c1       	rjmp	.+652    	; 0xdcc <__stack+0x4cd>
     b40:	80 e0       	ldi	r24, 0x00	; 0
     b42:	90 e0       	ldi	r25, 0x00	; 0
     b44:	41 e0       	ldi	r20, 0x01	; 1
     b46:	50 e0       	ldi	r21, 0x00	; 0
     b48:	60 e0       	ldi	r22, 0x00	; 0
     b4a:	70 e0       	ldi	r23, 0x00	; 0
     b4c:	04 97       	sbiw	r24, 0x04	; 4
     b4e:	c4 59       	subi	r28, 0x94	; 148
     b50:	de 4f       	sbci	r29, 0xFE	; 254
     b52:	e8 81       	ld	r30, Y
     b54:	f9 81       	ldd	r31, Y+1	; 0x01
     b56:	cc 56       	subi	r28, 0x6C	; 108
     b58:	d1 40       	sbci	r29, 0x01	; 1
     b5a:	e8 0f       	add	r30, r24
     b5c:	f9 1f       	adc	r31, r25
     b5e:	21 ef       	ldi	r18, 0xF1	; 241
     b60:	a2 2e       	mov	r10, r18
     b62:	b1 2c       	mov	r11, r1
     b64:	ac 0e       	add	r10, r28
     b66:	bd 1e       	adc	r11, r29
     b68:	ea 0d       	add	r30, r10
     b6a:	fb 1d       	adc	r31, r11
     b6c:	04 81       	ldd	r16, Z+4	; 0x04
     b6e:	15 81       	ldd	r17, Z+5	; 0x05
     b70:	26 81       	ldd	r18, Z+6	; 0x06
     b72:	37 81       	ldd	r19, Z+7	; 0x07
     b74:	01 2b       	or	r16, r17
     b76:	02 2b       	or	r16, r18
     b78:	03 2b       	or	r16, r19
     b7a:	29 f4       	brne	.+10     	; 0xb86 <__stack+0x287>
     b7c:	4f 5f       	subi	r20, 0xFF	; 255
     b7e:	5f 4f       	sbci	r21, 0xFF	; 255
     b80:	6f 4f       	sbci	r22, 0xFF	; 255
     b82:	7f 4f       	sbci	r23, 0xFF	; 255
     b84:	e3 cf       	rjmp	.-58     	; 0xb4c <__stack+0x24d>
     b86:	53 01       	movw	r10, r6
     b88:	42 01       	movw	r8, r4
     b8a:	0f ef       	ldi	r16, 0xFF	; 255
     b8c:	80 1a       	sub	r8, r16
     b8e:	90 0a       	sbc	r9, r16
     b90:	a0 0a       	sbc	r10, r16
     b92:	b0 0a       	sbc	r11, r16
     b94:	c7 5a       	subi	r28, 0xA7	; 167
     b96:	de 4f       	sbci	r29, 0xFE	; 254
     b98:	c8 80       	ld	r12, Y
     b9a:	d9 80       	ldd	r13, Y+1	; 0x01
     b9c:	ea 80       	ldd	r14, Y+2	; 0x02
     b9e:	fb 80       	ldd	r15, Y+3	; 0x03
     ba0:	c9 55       	subi	r28, 0x59	; 89
     ba2:	d1 40       	sbci	r29, 0x01	; 1
     ba4:	c8 0c       	add	r12, r8
     ba6:	d9 1c       	adc	r13, r9
     ba8:	ea 1c       	adc	r14, r10
     baa:	fb 1c       	adc	r15, r11
     bac:	cc 0c       	add	r12, r12
     bae:	dd 1c       	adc	r13, r13
     bb0:	cc 0c       	add	r12, r12
     bb2:	dd 1c       	adc	r13, r13
     bb4:	c6 01       	movw	r24, r12
     bb6:	dd 0c       	add	r13, r13
     bb8:	aa 0b       	sbc	r26, r26
     bba:	8c 01       	movw	r16, r24
     bbc:	2a 2f       	mov	r18, r26
     bbe:	0e 50       	subi	r16, 0x0E	; 14
     bc0:	1f 4f       	sbci	r17, 0xFF	; 255
     bc2:	2f 4f       	sbci	r18, 0xFF	; 255
     bc4:	68 01       	movw	r12, r16
     bc6:	e2 2e       	mov	r14, r18
     bc8:	c2 59       	subi	r28, 0x92	; 146
     bca:	de 4f       	sbci	r29, 0xFE	; 254
     bcc:	88 81       	ld	r24, Y
     bce:	99 81       	ldd	r25, Y+1	; 0x01
     bd0:	aa 81       	ldd	r26, Y+2	; 0x02
     bd2:	bb 81       	ldd	r27, Y+3	; 0x03
     bd4:	ce 56       	subi	r28, 0x6E	; 110
     bd6:	d1 40       	sbci	r29, 0x01	; 1
     bd8:	88 0d       	add	r24, r8
     bda:	99 1d       	adc	r25, r9
     bdc:	aa 1d       	adc	r26, r10
     bde:	bb 1d       	adc	r27, r11
     be0:	8c 01       	movw	r16, r24
     be2:	00 0f       	add	r16, r16
     be4:	11 1f       	adc	r17, r17
     be6:	00 0f       	add	r16, r16
     be8:	11 1f       	adc	r17, r17
     bea:	c6 59       	subi	r28, 0x96	; 150
     bec:	de 4f       	sbci	r29, 0xFE	; 254
     bee:	19 83       	std	Y+1, r17	; 0x01
     bf0:	08 83       	st	Y, r16
     bf2:	ca 56       	subi	r28, 0x6A	; 106
     bf4:	d1 40       	sbci	r29, 0x01	; 1
     bf6:	84 01       	movw	r16, r8
     bf8:	00 0f       	add	r16, r16
     bfa:	11 1f       	adc	r17, r17
     bfc:	00 0f       	add	r16, r16
     bfe:	11 1f       	adc	r17, r17
     c00:	c9 59       	subi	r28, 0x99	; 153
     c02:	de 4f       	sbci	r29, 0xFE	; 254
     c04:	19 83       	std	Y+1, r17	; 0x01
     c06:	08 83       	st	Y, r16
     c08:	c7 56       	subi	r28, 0x67	; 103
     c0a:	d1 40       	sbci	r29, 0x01	; 1
     c0c:	21 2c       	mov	r2, r1
     c0e:	31 2c       	mov	r3, r1
     c10:	d3 01       	movw	r26, r6
     c12:	c2 01       	movw	r24, r4
     c14:	84 0f       	add	r24, r20
     c16:	95 1f       	adc	r25, r21
     c18:	a6 1f       	adc	r26, r22
     c1a:	b7 1f       	adc	r27, r23
     c1c:	c1 5a       	subi	r28, 0xA1	; 161
     c1e:	de 4f       	sbci	r29, 0xFE	; 254
     c20:	88 83       	st	Y, r24
     c22:	99 83       	std	Y+1, r25	; 0x01
     c24:	aa 83       	std	Y+2, r26	; 0x02
     c26:	bb 83       	std	Y+3, r27	; 0x03
     c28:	cf 55       	subi	r28, 0x5F	; 95
     c2a:	d1 40       	sbci	r29, 0x01	; 1
     c2c:	c1 5a       	subi	r28, 0xA1	; 161
     c2e:	de 4f       	sbci	r29, 0xFE	; 254
     c30:	08 81       	ld	r16, Y
     c32:	19 81       	ldd	r17, Y+1	; 0x01
     c34:	2a 81       	ldd	r18, Y+2	; 0x02
     c36:	3b 81       	ldd	r19, Y+3	; 0x03
     c38:	cf 55       	subi	r28, 0x5F	; 95
     c3a:	d1 40       	sbci	r29, 0x01	; 1
     c3c:	08 15       	cp	r16, r8
     c3e:	19 05       	cpc	r17, r9
     c40:	2a 05       	cpc	r18, r10
     c42:	3b 05       	cpc	r19, r11
     c44:	0c f4       	brge	.+2      	; 0xc48 <__stack+0x349>
     c46:	bf c0       	rjmp	.+382    	; 0xdc6 <__stack+0x4c7>
     c48:	c6 59       	subi	r28, 0x96	; 150
     c4a:	de 4f       	sbci	r29, 0xFE	; 254
     c4c:	08 81       	ld	r16, Y
     c4e:	19 81       	ldd	r17, Y+1	; 0x01
     c50:	ca 56       	subi	r28, 0x6A	; 106
     c52:	d1 40       	sbci	r29, 0x01	; 1
     c54:	02 0d       	add	r16, r2
     c56:	13 1d       	adc	r17, r3
     c58:	c3 5b       	subi	r28, 0xB3	; 179
     c5a:	de 4f       	sbci	r29, 0xFE	; 254
     c5c:	19 83       	std	Y+1, r17	; 0x01
     c5e:	08 83       	st	Y, r16
     c60:	cd 54       	subi	r28, 0x4D	; 77
     c62:	d1 40       	sbci	r29, 0x01	; 1
     c64:	01 ea       	ldi	r16, 0xA1	; 161
     c66:	10 e0       	ldi	r17, 0x00	; 0
     c68:	0c 0f       	add	r16, r28
     c6a:	1d 1f       	adc	r17, r29
     c6c:	c3 5b       	subi	r28, 0xB3	; 179
     c6e:	de 4f       	sbci	r29, 0xFE	; 254
     c70:	28 81       	ld	r18, Y
     c72:	39 81       	ldd	r19, Y+1	; 0x01
     c74:	cd 54       	subi	r28, 0x4D	; 77
     c76:	d1 40       	sbci	r29, 0x01	; 1
     c78:	02 0f       	add	r16, r18
     c7a:	13 1f       	adc	r17, r19
     c7c:	f6 01       	movw	r30, r12
     c7e:	5e 2d       	mov	r21, r14
     c80:	0e 94 b6 15 	call	0x2b6c	; 0x2b6c <__xload_4>
     c84:	0e 94 51 13 	call	0x26a2	; 0x26a2 <__floatsisf>
     c88:	d8 01       	movw	r26, r16
     c8a:	6d 93       	st	X+, r22
     c8c:	7d 93       	st	X+, r23
     c8e:	8d 93       	st	X+, r24
     c90:	9c 93       	st	X, r25
     c92:	13 97       	sbiw	r26, 0x03	; 3
     c94:	cb 59       	subi	r28, 0x9B	; 155
     c96:	de 4f       	sbci	r29, 0xFE	; 254
     c98:	f8 80       	ld	r15, Y
     c9a:	c5 56       	subi	r28, 0x65	; 101
     c9c:	d1 40       	sbci	r29, 0x01	; 1
     c9e:	cb 5b       	subi	r28, 0xBB	; 187
     ca0:	de 4f       	sbci	r29, 0xFE	; 254
     ca2:	f8 82       	st	Y, r15
     ca4:	c5 54       	subi	r28, 0x45	; 69
     ca6:	d1 40       	sbci	r29, 0x01	; 1
     ca8:	c7 59       	subi	r28, 0x97	; 151
     caa:	de 4f       	sbci	r29, 0xFE	; 254
     cac:	f8 80       	ld	r15, Y
     cae:	c9 56       	subi	r28, 0x69	; 105
     cb0:	d1 40       	sbci	r29, 0x01	; 1
     cb2:	ca 5b       	subi	r28, 0xBA	; 186
     cb4:	de 4f       	sbci	r29, 0xFE	; 254
     cb6:	f8 82       	st	Y, r15
     cb8:	c6 54       	subi	r28, 0x46	; 70
     cba:	d1 40       	sbci	r29, 0x01	; 1
     cbc:	c7 5b       	subi	r28, 0xB7	; 183
     cbe:	de 4f       	sbci	r29, 0xFE	; 254
     cc0:	18 82       	st	Y, r1
     cc2:	19 82       	std	Y+1, r1	; 0x01
     cc4:	1a 82       	std	Y+2, r1	; 0x02
     cc6:	1b 82       	std	Y+3, r1	; 0x03
     cc8:	c9 54       	subi	r28, 0x49	; 73
     cca:	d1 40       	sbci	r29, 0x01	; 1
     ccc:	00 e0       	ldi	r16, 0x00	; 0
     cce:	10 e0       	ldi	r17, 0x00	; 0
     cd0:	41 2c       	mov	r4, r1
     cd2:	51 2c       	mov	r5, r1
     cd4:	32 01       	movw	r6, r4
     cd6:	c7 5b       	subi	r28, 0xB7	; 183
     cd8:	de 4f       	sbci	r29, 0xFE	; 254
     cda:	48 81       	ld	r20, Y
     cdc:	59 81       	ldd	r21, Y+1	; 0x01
     cde:	6a 81       	ldd	r22, Y+2	; 0x02
     ce0:	7b 81       	ldd	r23, Y+3	; 0x03
     ce2:	c9 54       	subi	r28, 0x49	; 73
     ce4:	d1 40       	sbci	r29, 0x01	; 1
     ce6:	cf 5a       	subi	r28, 0xAF	; 175
     ce8:	de 4f       	sbci	r29, 0xFE	; 254
     cea:	88 81       	ld	r24, Y
     cec:	99 81       	ldd	r25, Y+1	; 0x01
     cee:	aa 81       	ldd	r26, Y+2	; 0x02
     cf0:	bb 81       	ldd	r27, Y+3	; 0x03
     cf2:	c1 55       	subi	r28, 0x51	; 81
     cf4:	d1 40       	sbci	r29, 0x01	; 1
     cf6:	84 17       	cp	r24, r20
     cf8:	95 07       	cpc	r25, r21
     cfa:	a6 07       	cpc	r26, r22
     cfc:	b7 07       	cpc	r27, r23
     cfe:	0c f4       	brge	.+2      	; 0xd02 <__stack+0x403>
     d00:	43 c0       	rjmp	.+134    	; 0xd88 <__stack+0x489>
     d02:	c3 5b       	subi	r28, 0xB3	; 179
     d04:	de 4f       	sbci	r29, 0xFE	; 254
     d06:	e8 81       	ld	r30, Y
     d08:	f9 81       	ldd	r31, Y+1	; 0x01
     d0a:	cd 54       	subi	r28, 0x4D	; 77
     d0c:	d1 40       	sbci	r29, 0x01	; 1
     d0e:	e0 0f       	add	r30, r16
     d10:	f1 1f       	adc	r31, r17
     d12:	21 ea       	ldi	r18, 0xA1	; 161
     d14:	30 e0       	ldi	r19, 0x00	; 0
     d16:	2c 0f       	add	r18, r28
     d18:	3d 1f       	adc	r19, r29
     d1a:	e2 0f       	add	r30, r18
     d1c:	f3 1f       	adc	r31, r19
     d1e:	cb 5b       	subi	r28, 0xBB	; 187
     d20:	de 4f       	sbci	r29, 0xFE	; 254
     d22:	a8 81       	ld	r26, Y
     d24:	b9 81       	ldd	r27, Y+1	; 0x01
     d26:	c5 54       	subi	r28, 0x45	; 69
     d28:	d1 40       	sbci	r29, 0x01	; 1
     d2a:	2d 91       	ld	r18, X+
     d2c:	3d 91       	ld	r19, X+
     d2e:	4d 91       	ld	r20, X+
     d30:	5d 91       	ld	r21, X+
     d32:	cb 5b       	subi	r28, 0xBB	; 187
     d34:	de 4f       	sbci	r29, 0xFE	; 254
     d36:	b9 83       	std	Y+1, r27	; 0x01
     d38:	a8 83       	st	Y, r26
     d3a:	c5 54       	subi	r28, 0x45	; 69
     d3c:	d1 40       	sbci	r29, 0x01	; 1
     d3e:	60 81       	ld	r22, Z
     d40:	71 81       	ldd	r23, Z+1	; 0x01
     d42:	82 81       	ldd	r24, Z+2	; 0x02
     d44:	93 81       	ldd	r25, Z+3	; 0x03
     d46:	0e 94 60 16 	call	0x2cc0	; 0x2cc0 <__mulsf3>
     d4a:	9b 01       	movw	r18, r22
     d4c:	ac 01       	movw	r20, r24
     d4e:	c3 01       	movw	r24, r6
     d50:	b2 01       	movw	r22, r4
     d52:	0e 94 fe 15 	call	0x2bfc	; 0x2bfc <__addsf3>
     d56:	2b 01       	movw	r4, r22
     d58:	3c 01       	movw	r6, r24
     d5a:	c7 5b       	subi	r28, 0xB7	; 183
     d5c:	de 4f       	sbci	r29, 0xFE	; 254
     d5e:	28 81       	ld	r18, Y
     d60:	39 81       	ldd	r19, Y+1	; 0x01
     d62:	4a 81       	ldd	r20, Y+2	; 0x02
     d64:	5b 81       	ldd	r21, Y+3	; 0x03
     d66:	c9 54       	subi	r28, 0x49	; 73
     d68:	d1 40       	sbci	r29, 0x01	; 1
     d6a:	2f 5f       	subi	r18, 0xFF	; 255
     d6c:	3f 4f       	sbci	r19, 0xFF	; 255
     d6e:	4f 4f       	sbci	r20, 0xFF	; 255
     d70:	5f 4f       	sbci	r21, 0xFF	; 255
     d72:	c7 5b       	subi	r28, 0xB7	; 183
     d74:	de 4f       	sbci	r29, 0xFE	; 254
     d76:	28 83       	st	Y, r18
     d78:	39 83       	std	Y+1, r19	; 0x01
     d7a:	4a 83       	std	Y+2, r20	; 0x02
     d7c:	5b 83       	std	Y+3, r21	; 0x03
     d7e:	c9 54       	subi	r28, 0x49	; 73
     d80:	d1 40       	sbci	r29, 0x01	; 1
     d82:	04 50       	subi	r16, 0x04	; 4
     d84:	11 09       	sbc	r17, r1
     d86:	a7 cf       	rjmp	.-178    	; 0xcd6 <__stack+0x3d7>
     d88:	c9 59       	subi	r28, 0x99	; 153
     d8a:	de 4f       	sbci	r29, 0xFE	; 254
     d8c:	e8 81       	ld	r30, Y
     d8e:	f9 81       	ldd	r31, Y+1	; 0x01
     d90:	c7 56       	subi	r28, 0x67	; 103
     d92:	d1 40       	sbci	r29, 0x01	; 1
     d94:	e2 0d       	add	r30, r2
     d96:	f3 1d       	adc	r31, r3
     d98:	a1 e0       	ldi	r26, 0x01	; 1
     d9a:	b0 e0       	ldi	r27, 0x00	; 0
     d9c:	ac 0f       	add	r26, r28
     d9e:	bd 1f       	adc	r27, r29
     da0:	ea 0f       	add	r30, r26
     da2:	fb 1f       	adc	r31, r27
     da4:	40 82       	st	Z, r4
     da6:	51 82       	std	Z+1, r5	; 0x01
     da8:	62 82       	std	Z+2, r6	; 0x02
     daa:	73 82       	std	Z+3, r7	; 0x03
     dac:	bf ef       	ldi	r27, 0xFF	; 255
     dae:	8b 1a       	sub	r8, r27
     db0:	9b 0a       	sbc	r9, r27
     db2:	ab 0a       	sbc	r10, r27
     db4:	bb 0a       	sbc	r11, r27
     db6:	e4 e0       	ldi	r30, 0x04	; 4
     db8:	2e 0e       	add	r2, r30
     dba:	31 1c       	adc	r3, r1
     dbc:	f4 e0       	ldi	r31, 0x04	; 4
     dbe:	cf 0e       	add	r12, r31
     dc0:	d1 1c       	adc	r13, r1
     dc2:	e1 1c       	adc	r14, r1
     dc4:	33 cf       	rjmp	.-410    	; 0xc2c <__stack+0x32d>
     dc6:	28 01       	movw	r4, r16
     dc8:	39 01       	movw	r6, r18
     dca:	22 cc       	rjmp	.-1980   	; 0x610 <__EEPROM_REGION_LENGTH__+0x210>
     dcc:	cf 5b       	subi	r28, 0xBF	; 191
     dce:	de 4f       	sbci	r29, 0xFE	; 254
     dd0:	28 81       	ld	r18, Y
     dd2:	39 81       	ldd	r19, Y+1	; 0x01
     dd4:	4a 81       	ldd	r20, Y+2	; 0x02
     dd6:	5b 81       	ldd	r21, Y+3	; 0x03
     dd8:	c1 54       	subi	r28, 0x41	; 65
     dda:	d1 40       	sbci	r29, 0x01	; 1
     ddc:	28 51       	subi	r18, 0x18	; 24
     dde:	31 09       	sbc	r19, r1
     de0:	41 09       	sbc	r20, r1
     de2:	51 09       	sbc	r21, r1
     de4:	cf 5b       	subi	r28, 0xBF	; 191
     de6:	de 4f       	sbci	r29, 0xFE	; 254
     de8:	28 83       	st	Y, r18
     dea:	39 83       	std	Y+1, r19	; 0x01
     dec:	4a 83       	std	Y+2, r20	; 0x02
     dee:	5b 83       	std	Y+3, r21	; 0x03
     df0:	c1 54       	subi	r28, 0x41	; 65
     df2:	d1 40       	sbci	r29, 0x01	; 1
     df4:	c6 01       	movw	r24, r12
     df6:	88 0f       	add	r24, r24
     df8:	99 1f       	adc	r25, r25
     dfa:	88 0f       	add	r24, r24
     dfc:	99 1f       	adc	r25, r25
     dfe:	26 01       	movw	r4, r12
     e00:	37 01       	movw	r6, r14
     e02:	20 e0       	ldi	r18, 0x00	; 0
     e04:	30 e0       	ldi	r19, 0x00	; 0
     e06:	24 50       	subi	r18, 0x04	; 4
     e08:	31 09       	sbc	r19, r1
     e0a:	f9 01       	movw	r30, r18
     e0c:	e8 0f       	add	r30, r24
     e0e:	f9 1f       	adc	r31, r25
     e10:	61 ef       	ldi	r22, 0xF1	; 241
     e12:	70 e0       	ldi	r23, 0x00	; 0
     e14:	6c 0f       	add	r22, r28
     e16:	7d 1f       	adc	r23, r29
     e18:	e6 0f       	add	r30, r22
     e1a:	f7 1f       	adc	r31, r23
     e1c:	44 81       	ldd	r20, Z+4	; 0x04
     e1e:	55 81       	ldd	r21, Z+5	; 0x05
     e20:	66 81       	ldd	r22, Z+6	; 0x06
     e22:	77 81       	ldd	r23, Z+7	; 0x07
     e24:	45 2b       	or	r20, r21
     e26:	46 2b       	or	r20, r22
     e28:	47 2b       	or	r20, r23
     e2a:	09 f0       	breq	.+2      	; 0xe2e <__stack+0x52f>
     e2c:	9e c0       	rjmp	.+316    	; 0xf6a <__stack+0x66b>
     e2e:	41 e0       	ldi	r20, 0x01	; 1
     e30:	44 1a       	sub	r4, r20
     e32:	51 08       	sbc	r5, r1
     e34:	61 08       	sbc	r6, r1
     e36:	71 08       	sbc	r7, r1
     e38:	cf 5b       	subi	r28, 0xBF	; 191
     e3a:	de 4f       	sbci	r29, 0xFE	; 254
     e3c:	48 81       	ld	r20, Y
     e3e:	59 81       	ldd	r21, Y+1	; 0x01
     e40:	6a 81       	ldd	r22, Y+2	; 0x02
     e42:	7b 81       	ldd	r23, Y+3	; 0x03
     e44:	c1 54       	subi	r28, 0x41	; 65
     e46:	d1 40       	sbci	r29, 0x01	; 1
     e48:	48 51       	subi	r20, 0x18	; 24
     e4a:	51 09       	sbc	r21, r1
     e4c:	61 09       	sbc	r22, r1
     e4e:	71 09       	sbc	r23, r1
     e50:	cf 5b       	subi	r28, 0xBF	; 191
     e52:	de 4f       	sbci	r29, 0xFE	; 254
     e54:	48 83       	st	Y, r20
     e56:	59 83       	std	Y+1, r21	; 0x01
     e58:	6a 83       	std	Y+2, r22	; 0x02
     e5a:	7b 83       	std	Y+3, r23	; 0x03
     e5c:	c1 54       	subi	r28, 0x41	; 65
     e5e:	d1 40       	sbci	r29, 0x01	; 1
     e60:	d2 cf       	rjmp	.-92     	; 0xe06 <__stack+0x507>
     e62:	cf 5b       	subi	r28, 0xBF	; 191
     e64:	de 4f       	sbci	r29, 0xFE	; 254
     e66:	48 81       	ld	r20, Y
     e68:	59 81       	ldd	r21, Y+1	; 0x01
     e6a:	c1 54       	subi	r28, 0x41	; 65
     e6c:	d1 40       	sbci	r29, 0x01	; 1
     e6e:	51 95       	neg	r21
     e70:	41 95       	neg	r20
     e72:	51 09       	sbc	r21, r1
     e74:	c7 01       	movw	r24, r14
     e76:	b6 01       	movw	r22, r12
     e78:	0e 94 b7 12 	call	0x256e	; 0x256e <scalbnf>
     e7c:	6b 01       	movw	r12, r22
     e7e:	7c 01       	movw	r14, r24
     e80:	20 e0       	ldi	r18, 0x00	; 0
     e82:	30 e0       	ldi	r19, 0x00	; 0
     e84:	40 e8       	ldi	r20, 0x80	; 128
     e86:	5b e4       	ldi	r21, 0x4B	; 75
     e88:	0e 94 53 16 	call	0x2ca6	; 0x2ca6 <__gesf2>
     e8c:	87 fd       	sbrc	r24, 7
     e8e:	57 c0       	rjmp	.+174    	; 0xf3e <__stack+0x63f>
     e90:	20 e0       	ldi	r18, 0x00	; 0
     e92:	30 e0       	ldi	r19, 0x00	; 0
     e94:	40 e8       	ldi	r20, 0x80	; 128
     e96:	53 e3       	ldi	r21, 0x33	; 51
     e98:	c7 01       	movw	r24, r14
     e9a:	b6 01       	movw	r22, r12
     e9c:	0e 94 60 16 	call	0x2cc0	; 0x2cc0 <__mulsf3>
     ea0:	0e 94 04 16 	call	0x2c08	; 0x2c08 <__fixsfsi>
     ea4:	0e 94 51 13 	call	0x26a2	; 0x26a2 <__floatsisf>
     ea8:	4b 01       	movw	r8, r22
     eaa:	5c 01       	movw	r10, r24
     eac:	01 ef       	ldi	r16, 0xF1	; 241
     eae:	10 e0       	ldi	r17, 0x00	; 0
     eb0:	0c 0f       	add	r16, r28
     eb2:	1d 1f       	adc	r17, r29
     eb4:	c3 5b       	subi	r28, 0xB3	; 179
     eb6:	de 4f       	sbci	r29, 0xFE	; 254
     eb8:	88 81       	ld	r24, Y
     eba:	99 81       	ldd	r25, Y+1	; 0x01
     ebc:	cd 54       	subi	r28, 0x4D	; 77
     ebe:	d1 40       	sbci	r29, 0x01	; 1
     ec0:	08 0f       	add	r16, r24
     ec2:	19 1f       	adc	r17, r25
     ec4:	20 e0       	ldi	r18, 0x00	; 0
     ec6:	30 e0       	ldi	r19, 0x00	; 0
     ec8:	40 e8       	ldi	r20, 0x80	; 128
     eca:	5b e4       	ldi	r21, 0x4B	; 75
     ecc:	c5 01       	movw	r24, r10
     ece:	b4 01       	movw	r22, r8
     ed0:	0e 94 60 16 	call	0x2cc0	; 0x2cc0 <__mulsf3>
     ed4:	9b 01       	movw	r18, r22
     ed6:	ac 01       	movw	r20, r24
     ed8:	c7 01       	movw	r24, r14
     eda:	b6 01       	movw	r22, r12
     edc:	0e 94 fd 15 	call	0x2bfa	; 0x2bfa <__subsf3>
     ee0:	0e 94 04 16 	call	0x2c08	; 0x2c08 <__fixsfsi>
     ee4:	d8 01       	movw	r26, r16
     ee6:	6d 93       	st	X+, r22
     ee8:	7d 93       	st	X+, r23
     eea:	8d 93       	st	X+, r24
     eec:	9c 93       	st	X, r25
     eee:	13 97       	sbiw	r26, 0x03	; 3
     ef0:	bf ef       	ldi	r27, 0xFF	; 255
     ef2:	4b 1a       	sub	r4, r27
     ef4:	5b 0a       	sbc	r5, r27
     ef6:	6b 0a       	sbc	r6, r27
     ef8:	7b 0a       	sbc	r7, r27
     efa:	cf 5b       	subi	r28, 0xBF	; 191
     efc:	de 4f       	sbci	r29, 0xFE	; 254
     efe:	08 81       	ld	r16, Y
     f00:	19 81       	ldd	r17, Y+1	; 0x01
     f02:	2a 81       	ldd	r18, Y+2	; 0x02
     f04:	3b 81       	ldd	r19, Y+3	; 0x03
     f06:	c1 54       	subi	r28, 0x41	; 65
     f08:	d1 40       	sbci	r29, 0x01	; 1
     f0a:	08 5e       	subi	r16, 0xE8	; 232
     f0c:	1f 4f       	sbci	r17, 0xFF	; 255
     f0e:	2f 4f       	sbci	r18, 0xFF	; 255
     f10:	3f 4f       	sbci	r19, 0xFF	; 255
     f12:	cf 5b       	subi	r28, 0xBF	; 191
     f14:	de 4f       	sbci	r29, 0xFE	; 254
     f16:	08 83       	st	Y, r16
     f18:	19 83       	std	Y+1, r17	; 0x01
     f1a:	2a 83       	std	Y+2, r18	; 0x02
     f1c:	3b 83       	std	Y+3, r19	; 0x03
     f1e:	c1 54       	subi	r28, 0x41	; 65
     f20:	d1 40       	sbci	r29, 0x01	; 1
     f22:	82 01       	movw	r16, r4
     f24:	00 0f       	add	r16, r16
     f26:	11 1f       	adc	r17, r17
     f28:	00 0f       	add	r16, r16
     f2a:	11 1f       	adc	r17, r17
     f2c:	21 ef       	ldi	r18, 0xF1	; 241
     f2e:	30 e0       	ldi	r19, 0x00	; 0
     f30:	2c 0f       	add	r18, r28
     f32:	3d 1f       	adc	r19, r29
     f34:	02 0f       	add	r16, r18
     f36:	13 1f       	adc	r17, r19
     f38:	c5 01       	movw	r24, r10
     f3a:	b4 01       	movw	r22, r8
     f3c:	0e c0       	rjmp	.+28     	; 0xf5a <__stack+0x65b>
     f3e:	01 ef       	ldi	r16, 0xF1	; 241
     f40:	10 e0       	ldi	r17, 0x00	; 0
     f42:	0c 0f       	add	r16, r28
     f44:	1d 1f       	adc	r17, r29
     f46:	c3 5b       	subi	r28, 0xB3	; 179
     f48:	de 4f       	sbci	r29, 0xFE	; 254
     f4a:	88 80       	ld	r8, Y
     f4c:	99 80       	ldd	r9, Y+1	; 0x01
     f4e:	cd 54       	subi	r28, 0x4D	; 77
     f50:	d1 40       	sbci	r29, 0x01	; 1
     f52:	08 0d       	add	r16, r8
     f54:	19 1d       	adc	r17, r9
     f56:	c7 01       	movw	r24, r14
     f58:	b6 01       	movw	r22, r12
     f5a:	0e 94 04 16 	call	0x2c08	; 0x2c08 <__fixsfsi>
     f5e:	d8 01       	movw	r26, r16
     f60:	6d 93       	st	X+, r22
     f62:	7d 93       	st	X+, r23
     f64:	8d 93       	st	X+, r24
     f66:	9c 93       	st	X, r25
     f68:	13 97       	sbiw	r26, 0x03	; 3
     f6a:	cf 5b       	subi	r28, 0xBF	; 191
     f6c:	de 4f       	sbci	r29, 0xFE	; 254
     f6e:	48 81       	ld	r20, Y
     f70:	59 81       	ldd	r21, Y+1	; 0x01
     f72:	c1 54       	subi	r28, 0x41	; 65
     f74:	d1 40       	sbci	r29, 0x01	; 1
     f76:	60 e0       	ldi	r22, 0x00	; 0
     f78:	70 e0       	ldi	r23, 0x00	; 0
     f7a:	80 e8       	ldi	r24, 0x80	; 128
     f7c:	9f e3       	ldi	r25, 0x3F	; 63
     f7e:	0e 94 b7 12 	call	0x256e	; 0x256e <scalbnf>
     f82:	4b 01       	movw	r8, r22
     f84:	5c 01       	movw	r10, r24
     f86:	c1 5a       	subi	r28, 0xA1	; 161
     f88:	de 4f       	sbci	r29, 0xFE	; 254
     f8a:	59 82       	std	Y+1, r5	; 0x01
     f8c:	48 82       	st	Y, r4
     f8e:	cf 55       	subi	r28, 0x5F	; 95
     f90:	d1 40       	sbci	r29, 0x01	; 1
     f92:	12 01       	movw	r2, r4
     f94:	22 0c       	add	r2, r2
     f96:	33 1c       	adc	r3, r3
     f98:	22 0c       	add	r2, r2
     f9a:	33 1c       	adc	r3, r3
     f9c:	73 01       	movw	r14, r6
     f9e:	62 01       	movw	r12, r4
     fa0:	00 e0       	ldi	r16, 0x00	; 0
     fa2:	10 e0       	ldi	r17, 0x00	; 0
     fa4:	f7 fc       	sbrc	r15, 7
     fa6:	3c c0       	rjmp	.+120    	; 0x1020 <__stack+0x721>
     fa8:	c8 01       	movw	r24, r16
     faa:	82 0d       	add	r24, r2
     fac:	93 1d       	adc	r25, r3
     fae:	e1 e0       	ldi	r30, 0x01	; 1
     fb0:	f0 e0       	ldi	r31, 0x00	; 0
     fb2:	ec 0f       	add	r30, r28
     fb4:	fd 1f       	adc	r31, r29
     fb6:	e8 0f       	add	r30, r24
     fb8:	f9 1f       	adc	r31, r25
     fba:	cf 5b       	subi	r28, 0xBF	; 191
     fbc:	de 4f       	sbci	r29, 0xFE	; 254
     fbe:	f9 83       	std	Y+1, r31	; 0x01
     fc0:	e8 83       	st	Y, r30
     fc2:	c1 54       	subi	r28, 0x41	; 65
     fc4:	d1 40       	sbci	r29, 0x01	; 1
     fc6:	e1 ef       	ldi	r30, 0xF1	; 241
     fc8:	f0 e0       	ldi	r31, 0x00	; 0
     fca:	ec 0f       	add	r30, r28
     fcc:	fd 1f       	adc	r31, r29
     fce:	e8 0f       	add	r30, r24
     fd0:	f9 1f       	adc	r31, r25
     fd2:	60 81       	ld	r22, Z
     fd4:	71 81       	ldd	r23, Z+1	; 0x01
     fd6:	82 81       	ldd	r24, Z+2	; 0x02
     fd8:	93 81       	ldd	r25, Z+3	; 0x03
     fda:	0e 94 51 13 	call	0x26a2	; 0x26a2 <__floatsisf>
     fde:	a5 01       	movw	r20, r10
     fe0:	94 01       	movw	r18, r8
     fe2:	0e 94 60 16 	call	0x2cc0	; 0x2cc0 <__mulsf3>
     fe6:	cf 5b       	subi	r28, 0xBF	; 191
     fe8:	de 4f       	sbci	r29, 0xFE	; 254
     fea:	a8 81       	ld	r26, Y
     fec:	b9 81       	ldd	r27, Y+1	; 0x01
     fee:	c1 54       	subi	r28, 0x41	; 65
     ff0:	d1 40       	sbci	r29, 0x01	; 1
     ff2:	6d 93       	st	X+, r22
     ff4:	7d 93       	st	X+, r23
     ff6:	8d 93       	st	X+, r24
     ff8:	9c 93       	st	X, r25
     ffa:	13 97       	sbiw	r26, 0x03	; 3
     ffc:	20 e0       	ldi	r18, 0x00	; 0
     ffe:	30 e0       	ldi	r19, 0x00	; 0
    1000:	40 e8       	ldi	r20, 0x80	; 128
    1002:	53 e3       	ldi	r21, 0x33	; 51
    1004:	c5 01       	movw	r24, r10
    1006:	b4 01       	movw	r22, r8
    1008:	0e 94 60 16 	call	0x2cc0	; 0x2cc0 <__mulsf3>
    100c:	4b 01       	movw	r8, r22
    100e:	5c 01       	movw	r10, r24
    1010:	b1 e0       	ldi	r27, 0x01	; 1
    1012:	cb 1a       	sub	r12, r27
    1014:	d1 08       	sbc	r13, r1
    1016:	e1 08       	sbc	r14, r1
    1018:	f1 08       	sbc	r15, r1
    101a:	04 50       	subi	r16, 0x04	; 4
    101c:	11 09       	sbc	r17, r1
    101e:	c2 cf       	rjmp	.-124    	; 0xfa4 <__stack+0x6a5>
    1020:	8e 01       	movw	r16, r28
    1022:	0f 5a       	subi	r16, 0xAF	; 175
    1024:	1f 4f       	sbci	r17, 0xFF	; 255
    1026:	c3 5b       	subi	r28, 0xB3	; 179
    1028:	de 4f       	sbci	r29, 0xFE	; 254
    102a:	19 83       	std	Y+1, r17	; 0x01
    102c:	08 83       	st	Y, r16
    102e:	cd 54       	subi	r28, 0x4D	; 77
    1030:	d1 40       	sbci	r29, 0x01	; 1
    1032:	cf 5b       	subi	r28, 0xBF	; 191
    1034:	de 4f       	sbci	r29, 0xFE	; 254
    1036:	18 82       	st	Y, r1
    1038:	19 82       	std	Y+1, r1	; 0x01
    103a:	1a 82       	std	Y+2, r1	; 0x02
    103c:	1b 82       	std	Y+3, r1	; 0x03
    103e:	c1 54       	subi	r28, 0x41	; 65
    1040:	d1 40       	sbci	r29, 0x01	; 1
    1042:	cf 5a       	subi	r28, 0xAF	; 175
    1044:	de 4f       	sbci	r29, 0xFE	; 254
    1046:	19 82       	std	Y+1, r1	; 0x01
    1048:	18 82       	st	Y, r1
    104a:	c1 55       	subi	r28, 0x51	; 81
    104c:	d1 40       	sbci	r29, 0x01	; 1
    104e:	d3 01       	movw	r26, r6
    1050:	c2 01       	movw	r24, r4
    1052:	cf 5b       	subi	r28, 0xBF	; 191
    1054:	de 4f       	sbci	r29, 0xFE	; 254
    1056:	88 80       	ld	r8, Y
    1058:	99 80       	ldd	r9, Y+1	; 0x01
    105a:	aa 80       	ldd	r10, Y+2	; 0x02
    105c:	bb 80       	ldd	r11, Y+3	; 0x03
    105e:	c1 54       	subi	r28, 0x41	; 65
    1060:	d1 40       	sbci	r29, 0x01	; 1
    1062:	88 19       	sub	r24, r8
    1064:	99 09       	sbc	r25, r9
    1066:	aa 09       	sbc	r26, r10
    1068:	bb 09       	sbc	r27, r11
    106a:	b7 fd       	sbrc	r27, 7
    106c:	b2 c0       	rjmp	.+356    	; 0x11d2 <__stack+0x8d3>
    106e:	7c e2       	ldi	r23, 0x2C	; 44
    1070:	87 2e       	mov	r8, r23
    1072:	72 e0       	ldi	r23, 0x02	; 2
    1074:	97 2e       	mov	r9, r23
    1076:	70 e0       	ldi	r23, 0x00	; 0
    1078:	a7 2e       	mov	r10, r23
    107a:	61 01       	movw	r12, r2
    107c:	cf 5a       	subi	r28, 0xAF	; 175
    107e:	de 4f       	sbci	r29, 0xFE	; 254
    1080:	e8 80       	ld	r14, Y
    1082:	f9 80       	ldd	r15, Y+1	; 0x01
    1084:	c1 55       	subi	r28, 0x51	; 81
    1086:	d1 40       	sbci	r29, 0x01	; 1
    1088:	ce 18       	sub	r12, r14
    108a:	df 08       	sbc	r13, r15
    108c:	cb 59       	subi	r28, 0x9B	; 155
    108e:	de 4f       	sbci	r29, 0xFE	; 254
    1090:	d9 82       	std	Y+1, r13	; 0x01
    1092:	c8 82       	st	Y, r12
    1094:	c5 56       	subi	r28, 0x65	; 101
    1096:	d1 40       	sbci	r29, 0x01	; 1
    1098:	00 e0       	ldi	r16, 0x00	; 0
    109a:	10 e0       	ldi	r17, 0x00	; 0
    109c:	c7 5a       	subi	r28, 0xA7	; 167
    109e:	de 4f       	sbci	r29, 0xFE	; 254
    10a0:	18 82       	st	Y, r1
    10a2:	19 82       	std	Y+1, r1	; 0x01
    10a4:	1a 82       	std	Y+2, r1	; 0x02
    10a6:	1b 82       	std	Y+3, r1	; 0x03
    10a8:	c9 55       	subi	r28, 0x59	; 89
    10aa:	d1 40       	sbci	r29, 0x01	; 1
    10ac:	c1 2c       	mov	r12, r1
    10ae:	d1 2c       	mov	r13, r1
    10b0:	76 01       	movw	r14, r12
    10b2:	cb 5a       	subi	r28, 0xAB	; 171
    10b4:	de 4f       	sbci	r29, 0xFE	; 254
    10b6:	68 81       	ld	r22, Y
    10b8:	79 81       	ldd	r23, Y+1	; 0x01
    10ba:	8a 81       	ldd	r24, Y+2	; 0x02
    10bc:	9b 81       	ldd	r25, Y+3	; 0x03
    10be:	c5 55       	subi	r28, 0x55	; 85
    10c0:	d1 40       	sbci	r29, 0x01	; 1
    10c2:	6c 15       	cp	r22, r12
    10c4:	7d 05       	cpc	r23, r13
    10c6:	8e 05       	cpc	r24, r14
    10c8:	9f 05       	cpc	r25, r15
    10ca:	0c f4       	brge	.+2      	; 0x10ce <__stack+0x7cf>
    10cc:	47 c0       	rjmp	.+142    	; 0x115c <__stack+0x85d>
    10ce:	cf 5b       	subi	r28, 0xBF	; 191
    10d0:	de 4f       	sbci	r29, 0xFE	; 254
    10d2:	88 81       	ld	r24, Y
    10d4:	99 81       	ldd	r25, Y+1	; 0x01
    10d6:	aa 81       	ldd	r26, Y+2	; 0x02
    10d8:	bb 81       	ldd	r27, Y+3	; 0x03
    10da:	c1 54       	subi	r28, 0x41	; 65
    10dc:	d1 40       	sbci	r29, 0x01	; 1
    10de:	8c 15       	cp	r24, r12
    10e0:	9d 05       	cpc	r25, r13
    10e2:	ae 05       	cpc	r26, r14
    10e4:	bf 05       	cpc	r27, r15
    10e6:	d4 f1       	brlt	.+116    	; 0x115c <__stack+0x85d>
    10e8:	cb 59       	subi	r28, 0x9B	; 155
    10ea:	de 4f       	sbci	r29, 0xFE	; 254
    10ec:	a8 81       	ld	r26, Y
    10ee:	b9 81       	ldd	r27, Y+1	; 0x01
    10f0:	c5 56       	subi	r28, 0x65	; 101
    10f2:	d1 40       	sbci	r29, 0x01	; 1
    10f4:	a0 0f       	add	r26, r16
    10f6:	b1 1f       	adc	r27, r17
    10f8:	21 e0       	ldi	r18, 0x01	; 1
    10fa:	30 e0       	ldi	r19, 0x00	; 0
    10fc:	2c 0f       	add	r18, r28
    10fe:	3d 1f       	adc	r19, r29
    1100:	a2 0f       	add	r26, r18
    1102:	b3 1f       	adc	r27, r19
    1104:	f4 01       	movw	r30, r8
    1106:	5a 2d       	mov	r21, r10
    1108:	0e 94 b6 15 	call	0x2b6c	; 0x2b6c <__xload_4>
    110c:	9b 01       	movw	r18, r22
    110e:	ac 01       	movw	r20, r24
    1110:	6d 91       	ld	r22, X+
    1112:	7d 91       	ld	r23, X+
    1114:	8d 91       	ld	r24, X+
    1116:	9c 91       	ld	r25, X
    1118:	0e 94 60 16 	call	0x2cc0	; 0x2cc0 <__mulsf3>
    111c:	9b 01       	movw	r18, r22
    111e:	ac 01       	movw	r20, r24
    1120:	c7 5a       	subi	r28, 0xA7	; 167
    1122:	de 4f       	sbci	r29, 0xFE	; 254
    1124:	68 81       	ld	r22, Y
    1126:	79 81       	ldd	r23, Y+1	; 0x01
    1128:	8a 81       	ldd	r24, Y+2	; 0x02
    112a:	9b 81       	ldd	r25, Y+3	; 0x03
    112c:	c9 55       	subi	r28, 0x59	; 89
    112e:	d1 40       	sbci	r29, 0x01	; 1
    1130:	0e 94 fe 15 	call	0x2bfc	; 0x2bfc <__addsf3>
    1134:	c7 5a       	subi	r28, 0xA7	; 167
    1136:	de 4f       	sbci	r29, 0xFE	; 254
    1138:	68 83       	st	Y, r22
    113a:	79 83       	std	Y+1, r23	; 0x01
    113c:	8a 83       	std	Y+2, r24	; 0x02
    113e:	9b 83       	std	Y+3, r25	; 0x03
    1140:	c9 55       	subi	r28, 0x59	; 89
    1142:	d1 40       	sbci	r29, 0x01	; 1
    1144:	3f ef       	ldi	r19, 0xFF	; 255
    1146:	c3 1a       	sub	r12, r19
    1148:	d3 0a       	sbc	r13, r19
    114a:	e3 0a       	sbc	r14, r19
    114c:	f3 0a       	sbc	r15, r19
    114e:	44 e0       	ldi	r20, 0x04	; 4
    1150:	84 0e       	add	r8, r20
    1152:	91 1c       	adc	r9, r1
    1154:	a1 1c       	adc	r10, r1
    1156:	0c 5f       	subi	r16, 0xFC	; 252
    1158:	1f 4f       	sbci	r17, 0xFF	; 255
    115a:	ab cf       	rjmp	.-170    	; 0x10b2 <__stack+0x7b3>
    115c:	c3 5b       	subi	r28, 0xB3	; 179
    115e:	de 4f       	sbci	r29, 0xFE	; 254
    1160:	a8 81       	ld	r26, Y
    1162:	b9 81       	ldd	r27, Y+1	; 0x01
    1164:	cd 54       	subi	r28, 0x4D	; 77
    1166:	d1 40       	sbci	r29, 0x01	; 1
    1168:	c7 5a       	subi	r28, 0xA7	; 167
    116a:	de 4f       	sbci	r29, 0xFE	; 254
    116c:	88 80       	ld	r8, Y
    116e:	99 80       	ldd	r9, Y+1	; 0x01
    1170:	aa 80       	ldd	r10, Y+2	; 0x02
    1172:	bb 80       	ldd	r11, Y+3	; 0x03
    1174:	c9 55       	subi	r28, 0x59	; 89
    1176:	d1 40       	sbci	r29, 0x01	; 1
    1178:	8d 92       	st	X+, r8
    117a:	9d 92       	st	X+, r9
    117c:	ad 92       	st	X+, r10
    117e:	bd 92       	st	X+, r11
    1180:	c3 5b       	subi	r28, 0xB3	; 179
    1182:	de 4f       	sbci	r29, 0xFE	; 254
    1184:	b9 83       	std	Y+1, r27	; 0x01
    1186:	a8 83       	st	Y, r26
    1188:	cd 54       	subi	r28, 0x4D	; 77
    118a:	d1 40       	sbci	r29, 0x01	; 1
    118c:	cf 5a       	subi	r28, 0xAF	; 175
    118e:	de 4f       	sbci	r29, 0xFE	; 254
    1190:	08 81       	ld	r16, Y
    1192:	19 81       	ldd	r17, Y+1	; 0x01
    1194:	c1 55       	subi	r28, 0x51	; 81
    1196:	d1 40       	sbci	r29, 0x01	; 1
    1198:	0c 5f       	subi	r16, 0xFC	; 252
    119a:	1f 4f       	sbci	r17, 0xFF	; 255
    119c:	cf 5a       	subi	r28, 0xAF	; 175
    119e:	de 4f       	sbci	r29, 0xFE	; 254
    11a0:	19 83       	std	Y+1, r17	; 0x01
    11a2:	08 83       	st	Y, r16
    11a4:	c1 55       	subi	r28, 0x51	; 81
    11a6:	d1 40       	sbci	r29, 0x01	; 1
    11a8:	cf 5b       	subi	r28, 0xBF	; 191
    11aa:	de 4f       	sbci	r29, 0xFE	; 254
    11ac:	28 81       	ld	r18, Y
    11ae:	39 81       	ldd	r19, Y+1	; 0x01
    11b0:	4a 81       	ldd	r20, Y+2	; 0x02
    11b2:	5b 81       	ldd	r21, Y+3	; 0x03
    11b4:	c1 54       	subi	r28, 0x41	; 65
    11b6:	d1 40       	sbci	r29, 0x01	; 1
    11b8:	2f 5f       	subi	r18, 0xFF	; 255
    11ba:	3f 4f       	sbci	r19, 0xFF	; 255
    11bc:	4f 4f       	sbci	r20, 0xFF	; 255
    11be:	5f 4f       	sbci	r21, 0xFF	; 255
    11c0:	cf 5b       	subi	r28, 0xBF	; 191
    11c2:	de 4f       	sbci	r29, 0xFE	; 254
    11c4:	28 83       	st	Y, r18
    11c6:	39 83       	std	Y+1, r19	; 0x01
    11c8:	4a 83       	std	Y+2, r20	; 0x02
    11ca:	5b 83       	std	Y+3, r21	; 0x03
    11cc:	c1 54       	subi	r28, 0x41	; 65
    11ce:	d1 40       	sbci	r29, 0x01	; 1
    11d0:	3e cf       	rjmp	.-388    	; 0x104e <__stack+0x74f>
    11d2:	cd 59       	subi	r28, 0x9D	; 157
    11d4:	de 4f       	sbci	r29, 0xFE	; 254
    11d6:	08 81       	ld	r16, Y
    11d8:	19 81       	ldd	r17, Y+1	; 0x01
    11da:	c3 56       	subi	r28, 0x63	; 99
    11dc:	d1 40       	sbci	r29, 0x01	; 1
    11de:	03 30       	cpi	r16, 0x03	; 3
    11e0:	11 05       	cpc	r17, r1
    11e2:	74 f4       	brge	.+28     	; 0x1200 <__stack+0x901>
    11e4:	01 30       	cpi	r16, 0x01	; 1
    11e6:	11 05       	cpc	r17, r1
    11e8:	0c f0       	brlt	.+2      	; 0x11ec <__stack+0x8ed>
    11ea:	48 c0       	rjmp	.+144    	; 0x127c <__stack+0x97d>
    11ec:	01 15       	cp	r16, r1
    11ee:	11 05       	cpc	r17, r1
    11f0:	09 f0       	breq	.+2      	; 0x11f4 <__stack+0x8f5>
    11f2:	41 c2       	rjmp	.+1154   	; 0x1676 <__stack+0xd77>
    11f4:	00 e0       	ldi	r16, 0x00	; 0
    11f6:	10 e0       	ldi	r17, 0x00	; 0
    11f8:	60 e0       	ldi	r22, 0x00	; 0
    11fa:	70 e0       	ldi	r23, 0x00	; 0
    11fc:	cb 01       	movw	r24, r22
    11fe:	46 c0       	rjmp	.+140    	; 0x128c <__stack+0x98d>
    1200:	cd 59       	subi	r28, 0x9D	; 157
    1202:	de 4f       	sbci	r29, 0xFE	; 254
    1204:	08 81       	ld	r16, Y
    1206:	19 81       	ldd	r17, Y+1	; 0x01
    1208:	c3 56       	subi	r28, 0x63	; 99
    120a:	d1 40       	sbci	r29, 0x01	; 1
    120c:	03 30       	cpi	r16, 0x03	; 3
    120e:	11 05       	cpc	r17, r1
    1210:	09 f0       	breq	.+2      	; 0x1214 <__stack+0x915>
    1212:	31 c2       	rjmp	.+1122   	; 0x1676 <__stack+0xd77>
    1214:	51 e5       	ldi	r21, 0x51	; 81
    1216:	85 2e       	mov	r8, r21
    1218:	91 2c       	mov	r9, r1
    121a:	8c 0e       	add	r8, r28
    121c:	9d 1e       	adc	r9, r29
    121e:	82 0c       	add	r8, r2
    1220:	93 1c       	adc	r9, r3
    1222:	cf 5b       	subi	r28, 0xBF	; 191
    1224:	de 4f       	sbci	r29, 0xFE	; 254
    1226:	99 82       	std	Y+1, r9	; 0x01
    1228:	88 82       	st	Y, r8
    122a:	c1 54       	subi	r28, 0x41	; 65
    122c:	d1 40       	sbci	r29, 0x01	; 1
    122e:	14 01       	movw	r2, r8
    1230:	2c ef       	ldi	r18, 0xFC	; 252
    1232:	c1 5a       	subi	r28, 0xA1	; 161
    1234:	de 4f       	sbci	r29, 0xFE	; 254
    1236:	08 81       	ld	r16, Y
    1238:	19 81       	ldd	r17, Y+1	; 0x01
    123a:	cf 55       	subi	r28, 0x5F	; 95
    123c:	d1 40       	sbci	r29, 0x01	; 1
    123e:	20 03       	mulsu	r18, r16
    1240:	40 01       	movw	r8, r0
    1242:	21 9f       	mul	r18, r17
    1244:	90 0c       	add	r9, r0
    1246:	11 24       	eor	r1, r1
    1248:	cd 59       	subi	r28, 0x9D	; 157
    124a:	de 4f       	sbci	r29, 0xFE	; 254
    124c:	99 82       	std	Y+1, r9	; 0x01
    124e:	88 82       	st	Y, r8
    1250:	c3 56       	subi	r28, 0x63	; 99
    1252:	d1 40       	sbci	r29, 0x01	; 1
    1254:	d3 01       	movw	r26, r6
    1256:	c2 01       	movw	r24, r4
    1258:	01 97       	sbiw	r24, 0x01	; 1
    125a:	a1 09       	sbc	r26, r1
    125c:	b1 09       	sbc	r27, r1
    125e:	5c 01       	movw	r10, r24
    1260:	aa 0c       	add	r10, r10
    1262:	bb 1c       	adc	r11, r11
    1264:	aa 0c       	add	r10, r10
    1266:	bb 1c       	adc	r11, r11
    1268:	c7 5a       	subi	r28, 0xA7	; 167
    126a:	de 4f       	sbci	r29, 0xFE	; 254
    126c:	b9 82       	std	Y+1, r11	; 0x01
    126e:	a8 82       	st	Y, r10
    1270:	c9 55       	subi	r28, 0x59	; 89
    1272:	d1 40       	sbci	r29, 0x01	; 1
    1274:	81 01       	movw	r16, r2
    1276:	73 01       	movw	r14, r6
    1278:	62 01       	movw	r12, r4
    127a:	b0 c0       	rjmp	.+352    	; 0x13dc <__stack+0xadd>
    127c:	73 01       	movw	r14, r6
    127e:	62 01       	movw	r12, r4
    1280:	00 e0       	ldi	r16, 0x00	; 0
    1282:	10 e0       	ldi	r17, 0x00	; 0
    1284:	60 e0       	ldi	r22, 0x00	; 0
    1286:	70 e0       	ldi	r23, 0x00	; 0
    1288:	cb 01       	movw	r24, r22
    128a:	35 c0       	rjmp	.+106    	; 0x12f6 <__stack+0x9f7>
    128c:	77 fc       	sbrc	r7, 7
    128e:	18 c0       	rjmp	.+48     	; 0x12c0 <__stack+0x9c1>
    1290:	f1 01       	movw	r30, r2
    1292:	e0 0f       	add	r30, r16
    1294:	f1 1f       	adc	r31, r17
    1296:	41 e5       	ldi	r20, 0x51	; 81
    1298:	c4 2e       	mov	r12, r20
    129a:	d1 2c       	mov	r13, r1
    129c:	cc 0e       	add	r12, r28
    129e:	dd 1e       	adc	r13, r29
    12a0:	ec 0d       	add	r30, r12
    12a2:	fd 1d       	adc	r31, r13
    12a4:	20 81       	ld	r18, Z
    12a6:	31 81       	ldd	r19, Z+1	; 0x01
    12a8:	42 81       	ldd	r20, Z+2	; 0x02
    12aa:	53 81       	ldd	r21, Z+3	; 0x03
    12ac:	0e 94 fe 15 	call	0x2bfc	; 0x2bfc <__addsf3>
    12b0:	21 e0       	ldi	r18, 0x01	; 1
    12b2:	42 1a       	sub	r4, r18
    12b4:	51 08       	sbc	r5, r1
    12b6:	61 08       	sbc	r6, r1
    12b8:	71 08       	sbc	r7, r1
    12ba:	04 50       	subi	r16, 0x04	; 4
    12bc:	11 09       	sbc	r17, r1
    12be:	e6 cf       	rjmp	.-52     	; 0x128c <__stack+0x98d>
    12c0:	cb 5b       	subi	r28, 0xBB	; 187
    12c2:	de 4f       	sbci	r29, 0xFE	; 254
    12c4:	88 80       	ld	r8, Y
    12c6:	99 80       	ldd	r9, Y+1	; 0x01
    12c8:	aa 80       	ldd	r10, Y+2	; 0x02
    12ca:	bb 80       	ldd	r11, Y+3	; 0x03
    12cc:	c5 54       	subi	r28, 0x45	; 69
    12ce:	d1 40       	sbci	r29, 0x01	; 1
    12d0:	dc 01       	movw	r26, r24
    12d2:	cb 01       	movw	r24, r22
    12d4:	81 14       	cp	r8, r1
    12d6:	91 04       	cpc	r9, r1
    12d8:	a1 04       	cpc	r10, r1
    12da:	b1 04       	cpc	r11, r1
    12dc:	09 f0       	breq	.+2      	; 0x12e0 <__stack+0x9e1>
    12de:	b0 58       	subi	r27, 0x80	; 128
    12e0:	c3 5a       	subi	r28, 0xA3	; 163
    12e2:	de 4f       	sbci	r29, 0xFE	; 254
    12e4:	e8 81       	ld	r30, Y
    12e6:	f9 81       	ldd	r31, Y+1	; 0x01
    12e8:	cd 55       	subi	r28, 0x5D	; 93
    12ea:	d1 40       	sbci	r29, 0x01	; 1
    12ec:	80 83       	st	Z, r24
    12ee:	91 83       	std	Z+1, r25	; 0x01
    12f0:	a2 83       	std	Z+2, r26	; 0x02
    12f2:	b3 83       	std	Z+3, r27	; 0x03
    12f4:	c0 c1       	rjmp	.+896    	; 0x1676 <__stack+0xd77>
    12f6:	f7 fc       	sbrc	r15, 7
    12f8:	18 c0       	rjmp	.+48     	; 0x132a <__stack+0xa2b>
    12fa:	f1 01       	movw	r30, r2
    12fc:	e0 0f       	add	r30, r16
    12fe:	f1 1f       	adc	r31, r17
    1300:	31 e5       	ldi	r19, 0x51	; 81
    1302:	83 2e       	mov	r8, r19
    1304:	91 2c       	mov	r9, r1
    1306:	8c 0e       	add	r8, r28
    1308:	9d 1e       	adc	r9, r29
    130a:	e8 0d       	add	r30, r8
    130c:	f9 1d       	adc	r31, r9
    130e:	20 81       	ld	r18, Z
    1310:	31 81       	ldd	r19, Z+1	; 0x01
    1312:	42 81       	ldd	r20, Z+2	; 0x02
    1314:	53 81       	ldd	r21, Z+3	; 0x03
    1316:	0e 94 fe 15 	call	0x2bfc	; 0x2bfc <__addsf3>
    131a:	21 e0       	ldi	r18, 0x01	; 1
    131c:	c2 1a       	sub	r12, r18
    131e:	d1 08       	sbc	r13, r1
    1320:	e1 08       	sbc	r14, r1
    1322:	f1 08       	sbc	r15, r1
    1324:	04 50       	subi	r16, 0x04	; 4
    1326:	11 09       	sbc	r17, r1
    1328:	e6 cf       	rjmp	.-52     	; 0x12f6 <__stack+0x9f7>
    132a:	cb 5b       	subi	r28, 0xBB	; 187
    132c:	de 4f       	sbci	r29, 0xFE	; 254
    132e:	88 80       	ld	r8, Y
    1330:	99 80       	ldd	r9, Y+1	; 0x01
    1332:	aa 80       	ldd	r10, Y+2	; 0x02
    1334:	bb 80       	ldd	r11, Y+3	; 0x03
    1336:	c5 54       	subi	r28, 0x45	; 69
    1338:	d1 40       	sbci	r29, 0x01	; 1
    133a:	8b 01       	movw	r16, r22
    133c:	9c 01       	movw	r18, r24
    133e:	89 28       	or	r8, r9
    1340:	8a 28       	or	r8, r10
    1342:	8b 28       	or	r8, r11
    1344:	09 f0       	breq	.+2      	; 0x1348 <__stack+0xa49>
    1346:	30 58       	subi	r19, 0x80	; 128
    1348:	c3 5a       	subi	r28, 0xA3	; 163
    134a:	de 4f       	sbci	r29, 0xFE	; 254
    134c:	a8 81       	ld	r26, Y
    134e:	b9 81       	ldd	r27, Y+1	; 0x01
    1350:	cd 55       	subi	r28, 0x5D	; 93
    1352:	d1 40       	sbci	r29, 0x01	; 1
    1354:	0d 93       	st	X+, r16
    1356:	1d 93       	st	X+, r17
    1358:	2d 93       	st	X+, r18
    135a:	3c 93       	st	X, r19
    135c:	13 97       	sbiw	r26, 0x03	; 3
    135e:	9b 01       	movw	r18, r22
    1360:	ac 01       	movw	r20, r24
    1362:	8e 01       	movw	r16, r28
    1364:	0f 5a       	subi	r16, 0xAF	; 175
    1366:	1f 4f       	sbci	r17, 0xFF	; 255
    1368:	f8 01       	movw	r30, r16
    136a:	61 91       	ld	r22, Z+
    136c:	71 91       	ld	r23, Z+
    136e:	81 91       	ld	r24, Z+
    1370:	91 91       	ld	r25, Z+
    1372:	8f 01       	movw	r16, r30
    1374:	0e 94 fd 15 	call	0x2bfa	; 0x2bfa <__subsf3>
    1378:	c1 2c       	mov	r12, r1
    137a:	d1 2c       	mov	r13, r1
    137c:	76 01       	movw	r14, r12
    137e:	c3 94       	inc	r12
    1380:	4c 14       	cp	r4, r12
    1382:	5d 04       	cpc	r5, r13
    1384:	6e 04       	cpc	r6, r14
    1386:	7f 04       	cpc	r7, r15
    1388:	74 f0       	brlt	.+28     	; 0x13a6 <__stack+0xaa7>
    138a:	d8 01       	movw	r26, r16
    138c:	2d 91       	ld	r18, X+
    138e:	3d 91       	ld	r19, X+
    1390:	4d 91       	ld	r20, X+
    1392:	5d 91       	ld	r21, X+
    1394:	8d 01       	movw	r16, r26
    1396:	0e 94 fe 15 	call	0x2bfc	; 0x2bfc <__addsf3>
    139a:	bf ef       	ldi	r27, 0xFF	; 255
    139c:	cb 1a       	sub	r12, r27
    139e:	db 0a       	sbc	r13, r27
    13a0:	eb 0a       	sbc	r14, r27
    13a2:	fb 0a       	sbc	r15, r27
    13a4:	ed cf       	rjmp	.-38     	; 0x1380 <__stack+0xa81>
    13a6:	cb 5b       	subi	r28, 0xBB	; 187
    13a8:	de 4f       	sbci	r29, 0xFE	; 254
    13aa:	88 80       	ld	r8, Y
    13ac:	99 80       	ldd	r9, Y+1	; 0x01
    13ae:	aa 80       	ldd	r10, Y+2	; 0x02
    13b0:	bb 80       	ldd	r11, Y+3	; 0x03
    13b2:	c5 54       	subi	r28, 0x45	; 69
    13b4:	d1 40       	sbci	r29, 0x01	; 1
    13b6:	dc 01       	movw	r26, r24
    13b8:	cb 01       	movw	r24, r22
    13ba:	81 14       	cp	r8, r1
    13bc:	91 04       	cpc	r9, r1
    13be:	a1 04       	cpc	r10, r1
    13c0:	b1 04       	cpc	r11, r1
    13c2:	09 f0       	breq	.+2      	; 0x13c6 <__stack+0xac7>
    13c4:	b0 58       	subi	r27, 0x80	; 128
    13c6:	c3 5a       	subi	r28, 0xA3	; 163
    13c8:	de 4f       	sbci	r29, 0xFE	; 254
    13ca:	e8 81       	ld	r30, Y
    13cc:	f9 81       	ldd	r31, Y+1	; 0x01
    13ce:	cd 55       	subi	r28, 0x5D	; 93
    13d0:	d1 40       	sbci	r29, 0x01	; 1
    13d2:	84 83       	std	Z+4, r24	; 0x04
    13d4:	95 83       	std	Z+5, r25	; 0x05
    13d6:	a6 83       	std	Z+6, r26	; 0x06
    13d8:	b7 83       	std	Z+7, r27	; 0x07
    13da:	4d c1       	rjmp	.+666    	; 0x1676 <__stack+0xd77>
    13dc:	1c 14       	cp	r1, r12
    13de:	1d 04       	cpc	r1, r13
    13e0:	1e 04       	cpc	r1, r14
    13e2:	1f 04       	cpc	r1, r15
    13e4:	0c f0       	brlt	.+2      	; 0x13e8 <__stack+0xae9>
    13e6:	6d c0       	rjmp	.+218    	; 0x14c2 <__stack+0xbc3>
    13e8:	f1 e0       	ldi	r31, 0x01	; 1
    13ea:	cf 1a       	sub	r12, r31
    13ec:	d1 08       	sbc	r13, r1
    13ee:	e1 08       	sbc	r14, r1
    13f0:	f1 08       	sbc	r15, r1
    13f2:	cd 59       	subi	r28, 0x9D	; 157
    13f4:	de 4f       	sbci	r29, 0xFE	; 254
    13f6:	88 81       	ld	r24, Y
    13f8:	99 81       	ldd	r25, Y+1	; 0x01
    13fa:	c3 56       	subi	r28, 0x63	; 99
    13fc:	d1 40       	sbci	r29, 0x01	; 1
    13fe:	80 0f       	add	r24, r16
    1400:	91 1f       	adc	r25, r17
    1402:	c7 5a       	subi	r28, 0xA7	; 167
    1404:	de 4f       	sbci	r29, 0xFE	; 254
    1406:	88 80       	ld	r8, Y
    1408:	99 80       	ldd	r9, Y+1	; 0x01
    140a:	c9 55       	subi	r28, 0x59	; 89
    140c:	d1 40       	sbci	r29, 0x01	; 1
    140e:	88 0e       	add	r8, r24
    1410:	99 1e       	adc	r9, r25
    1412:	cf 5a       	subi	r28, 0xAF	; 175
    1414:	de 4f       	sbci	r29, 0xFE	; 254
    1416:	99 82       	std	Y+1, r9	; 0x01
    1418:	88 82       	st	Y, r8
    141a:	c1 55       	subi	r28, 0x51	; 81
    141c:	d1 40       	sbci	r29, 0x01	; 1
    141e:	d4 01       	movw	r26, r8
    1420:	8d 90       	ld	r8, X+
    1422:	9d 90       	ld	r9, X+
    1424:	ad 90       	ld	r10, X+
    1426:	bc 90       	ld	r11, X
    1428:	cb 5a       	subi	r28, 0xAB	; 171
    142a:	de 4f       	sbci	r29, 0xFE	; 254
    142c:	88 82       	st	Y, r8
    142e:	99 82       	std	Y+1, r9	; 0x01
    1430:	aa 82       	std	Y+2, r10	; 0x02
    1432:	bb 82       	std	Y+3, r11	; 0x03
    1434:	c5 55       	subi	r28, 0x55	; 85
    1436:	d1 40       	sbci	r29, 0x01	; 1
    1438:	f8 01       	movw	r30, r16
    143a:	80 80       	ld	r8, Z
    143c:	91 80       	ldd	r9, Z+1	; 0x01
    143e:	a2 80       	ldd	r10, Z+2	; 0x02
    1440:	b3 80       	ldd	r11, Z+3	; 0x03
    1442:	a5 01       	movw	r20, r10
    1444:	94 01       	movw	r18, r8
    1446:	cb 5a       	subi	r28, 0xAB	; 171
    1448:	de 4f       	sbci	r29, 0xFE	; 254
    144a:	68 81       	ld	r22, Y
    144c:	79 81       	ldd	r23, Y+1	; 0x01
    144e:	8a 81       	ldd	r24, Y+2	; 0x02
    1450:	9b 81       	ldd	r25, Y+3	; 0x03
    1452:	c5 55       	subi	r28, 0x55	; 85
    1454:	d1 40       	sbci	r29, 0x01	; 1
    1456:	0e 94 fe 15 	call	0x2bfc	; 0x2bfc <__addsf3>
    145a:	c3 5b       	subi	r28, 0xB3	; 179
    145c:	de 4f       	sbci	r29, 0xFE	; 254
    145e:	68 83       	st	Y, r22
    1460:	79 83       	std	Y+1, r23	; 0x01
    1462:	8a 83       	std	Y+2, r24	; 0x02
    1464:	9b 83       	std	Y+3, r25	; 0x03
    1466:	cd 54       	subi	r28, 0x4D	; 77
    1468:	d1 40       	sbci	r29, 0x01	; 1
    146a:	9b 01       	movw	r18, r22
    146c:	ac 01       	movw	r20, r24
    146e:	cb 5a       	subi	r28, 0xAB	; 171
    1470:	de 4f       	sbci	r29, 0xFE	; 254
    1472:	68 81       	ld	r22, Y
    1474:	79 81       	ldd	r23, Y+1	; 0x01
    1476:	8a 81       	ldd	r24, Y+2	; 0x02
    1478:	9b 81       	ldd	r25, Y+3	; 0x03
    147a:	c5 55       	subi	r28, 0x55	; 85
    147c:	d1 40       	sbci	r29, 0x01	; 1
    147e:	0e 94 fd 15 	call	0x2bfa	; 0x2bfa <__subsf3>
    1482:	a5 01       	movw	r20, r10
    1484:	94 01       	movw	r18, r8
    1486:	0e 94 fe 15 	call	0x2bfc	; 0x2bfc <__addsf3>
    148a:	d8 01       	movw	r26, r16
    148c:	6d 93       	st	X+, r22
    148e:	7d 93       	st	X+, r23
    1490:	8d 93       	st	X+, r24
    1492:	9c 93       	st	X, r25
    1494:	13 97       	sbiw	r26, 0x03	; 3
    1496:	c3 5b       	subi	r28, 0xB3	; 179
    1498:	de 4f       	sbci	r29, 0xFE	; 254
    149a:	88 80       	ld	r8, Y
    149c:	99 80       	ldd	r9, Y+1	; 0x01
    149e:	aa 80       	ldd	r10, Y+2	; 0x02
    14a0:	bb 80       	ldd	r11, Y+3	; 0x03
    14a2:	cd 54       	subi	r28, 0x4D	; 77
    14a4:	d1 40       	sbci	r29, 0x01	; 1
    14a6:	cf 5a       	subi	r28, 0xAF	; 175
    14a8:	de 4f       	sbci	r29, 0xFE	; 254
    14aa:	a8 81       	ld	r26, Y
    14ac:	b9 81       	ldd	r27, Y+1	; 0x01
    14ae:	c1 55       	subi	r28, 0x51	; 81
    14b0:	d1 40       	sbci	r29, 0x01	; 1
    14b2:	8d 92       	st	X+, r8
    14b4:	9d 92       	st	X+, r9
    14b6:	ad 92       	st	X+, r10
    14b8:	bc 92       	st	X, r11
    14ba:	13 97       	sbiw	r26, 0x03	; 3
    14bc:	04 50       	subi	r16, 0x04	; 4
    14be:	11 09       	sbc	r17, r1
    14c0:	8d cf       	rjmp	.-230    	; 0x13dc <__stack+0xadd>
    14c2:	73 01       	movw	r14, r6
    14c4:	62 01       	movw	r12, r4
    14c6:	e2 e0       	ldi	r30, 0x02	; 2
    14c8:	ce 16       	cp	r12, r30
    14ca:	d1 04       	cpc	r13, r1
    14cc:	e1 04       	cpc	r14, r1
    14ce:	f1 04       	cpc	r15, r1
    14d0:	0c f4       	brge	.+2      	; 0x14d4 <__stack+0xbd5>
    14d2:	63 c0       	rjmp	.+198    	; 0x159a <__stack+0xc9b>
    14d4:	b1 e0       	ldi	r27, 0x01	; 1
    14d6:	cb 1a       	sub	r12, r27
    14d8:	d1 08       	sbc	r13, r1
    14da:	e1 08       	sbc	r14, r1
    14dc:	f1 08       	sbc	r15, r1
    14de:	cd 59       	subi	r28, 0x9D	; 157
    14e0:	de 4f       	sbci	r29, 0xFE	; 254
    14e2:	08 81       	ld	r16, Y
    14e4:	19 81       	ldd	r17, Y+1	; 0x01
    14e6:	c3 56       	subi	r28, 0x63	; 99
    14e8:	d1 40       	sbci	r29, 0x01	; 1
    14ea:	02 0d       	add	r16, r2
    14ec:	13 1d       	adc	r17, r3
    14ee:	c7 5a       	subi	r28, 0xA7	; 167
    14f0:	de 4f       	sbci	r29, 0xFE	; 254
    14f2:	88 80       	ld	r8, Y
    14f4:	99 80       	ldd	r9, Y+1	; 0x01
    14f6:	c9 55       	subi	r28, 0x59	; 89
    14f8:	d1 40       	sbci	r29, 0x01	; 1
    14fa:	08 0d       	add	r16, r8
    14fc:	19 1d       	adc	r17, r9
    14fe:	d8 01       	movw	r26, r16
    1500:	8d 90       	ld	r8, X+
    1502:	9d 90       	ld	r9, X+
    1504:	ad 90       	ld	r10, X+
    1506:	bc 90       	ld	r11, X
    1508:	cb 5a       	subi	r28, 0xAB	; 171
    150a:	de 4f       	sbci	r29, 0xFE	; 254
    150c:	88 82       	st	Y, r8
    150e:	99 82       	std	Y+1, r9	; 0x01
    1510:	aa 82       	std	Y+2, r10	; 0x02
    1512:	bb 82       	std	Y+3, r11	; 0x03
    1514:	c5 55       	subi	r28, 0x55	; 85
    1516:	d1 40       	sbci	r29, 0x01	; 1
    1518:	f1 01       	movw	r30, r2
    151a:	80 80       	ld	r8, Z
    151c:	91 80       	ldd	r9, Z+1	; 0x01
    151e:	a2 80       	ldd	r10, Z+2	; 0x02
    1520:	b3 80       	ldd	r11, Z+3	; 0x03
    1522:	a5 01       	movw	r20, r10
    1524:	94 01       	movw	r18, r8
    1526:	cb 5a       	subi	r28, 0xAB	; 171
    1528:	de 4f       	sbci	r29, 0xFE	; 254
    152a:	68 81       	ld	r22, Y
    152c:	79 81       	ldd	r23, Y+1	; 0x01
    152e:	8a 81       	ldd	r24, Y+2	; 0x02
    1530:	9b 81       	ldd	r25, Y+3	; 0x03
    1532:	c5 55       	subi	r28, 0x55	; 85
    1534:	d1 40       	sbci	r29, 0x01	; 1
    1536:	0e 94 fe 15 	call	0x2bfc	; 0x2bfc <__addsf3>
    153a:	cf 5a       	subi	r28, 0xAF	; 175
    153c:	de 4f       	sbci	r29, 0xFE	; 254
    153e:	68 83       	st	Y, r22
    1540:	79 83       	std	Y+1, r23	; 0x01
    1542:	8a 83       	std	Y+2, r24	; 0x02
    1544:	9b 83       	std	Y+3, r25	; 0x03
    1546:	c1 55       	subi	r28, 0x51	; 81
    1548:	d1 40       	sbci	r29, 0x01	; 1
    154a:	9b 01       	movw	r18, r22
    154c:	ac 01       	movw	r20, r24
    154e:	cb 5a       	subi	r28, 0xAB	; 171
    1550:	de 4f       	sbci	r29, 0xFE	; 254
    1552:	68 81       	ld	r22, Y
    1554:	79 81       	ldd	r23, Y+1	; 0x01
    1556:	8a 81       	ldd	r24, Y+2	; 0x02
    1558:	9b 81       	ldd	r25, Y+3	; 0x03
    155a:	c5 55       	subi	r28, 0x55	; 85
    155c:	d1 40       	sbci	r29, 0x01	; 1
    155e:	0e 94 fd 15 	call	0x2bfa	; 0x2bfa <__subsf3>
    1562:	a5 01       	movw	r20, r10
    1564:	94 01       	movw	r18, r8
    1566:	0e 94 fe 15 	call	0x2bfc	; 0x2bfc <__addsf3>
    156a:	d1 01       	movw	r26, r2
    156c:	6d 93       	st	X+, r22
    156e:	7d 93       	st	X+, r23
    1570:	8d 93       	st	X+, r24
    1572:	9c 93       	st	X, r25
    1574:	13 97       	sbiw	r26, 0x03	; 3
    1576:	cf 5a       	subi	r28, 0xAF	; 175
    1578:	de 4f       	sbci	r29, 0xFE	; 254
    157a:	88 80       	ld	r8, Y
    157c:	99 80       	ldd	r9, Y+1	; 0x01
    157e:	aa 80       	ldd	r10, Y+2	; 0x02
    1580:	bb 80       	ldd	r11, Y+3	; 0x03
    1582:	c1 55       	subi	r28, 0x51	; 81
    1584:	d1 40       	sbci	r29, 0x01	; 1
    1586:	d8 01       	movw	r26, r16
    1588:	8d 92       	st	X+, r8
    158a:	9d 92       	st	X+, r9
    158c:	ad 92       	st	X+, r10
    158e:	bc 92       	st	X, r11
    1590:	13 97       	sbiw	r26, 0x03	; 3
    1592:	b4 e0       	ldi	r27, 0x04	; 4
    1594:	2b 1a       	sub	r2, r27
    1596:	31 08       	sbc	r3, r1
    1598:	96 cf       	rjmp	.-212    	; 0x14c6 <__stack+0xbc7>
    159a:	00 e0       	ldi	r16, 0x00	; 0
    159c:	10 e0       	ldi	r17, 0x00	; 0
    159e:	60 e0       	ldi	r22, 0x00	; 0
    15a0:	70 e0       	ldi	r23, 0x00	; 0
    15a2:	cb 01       	movw	r24, r22
    15a4:	22 e0       	ldi	r18, 0x02	; 2
    15a6:	42 16       	cp	r4, r18
    15a8:	51 04       	cpc	r5, r1
    15aa:	61 04       	cpc	r6, r1
    15ac:	71 04       	cpc	r7, r1
    15ae:	b4 f0       	brlt	.+44     	; 0x15dc <__stack+0xcdd>
    15b0:	cf 5b       	subi	r28, 0xBF	; 191
    15b2:	de 4f       	sbci	r29, 0xFE	; 254
    15b4:	e8 81       	ld	r30, Y
    15b6:	f9 81       	ldd	r31, Y+1	; 0x01
    15b8:	c1 54       	subi	r28, 0x41	; 65
    15ba:	d1 40       	sbci	r29, 0x01	; 1
    15bc:	e0 0f       	add	r30, r16
    15be:	f1 1f       	adc	r31, r17
    15c0:	20 81       	ld	r18, Z
    15c2:	31 81       	ldd	r19, Z+1	; 0x01
    15c4:	42 81       	ldd	r20, Z+2	; 0x02
    15c6:	53 81       	ldd	r21, Z+3	; 0x03
    15c8:	0e 94 fe 15 	call	0x2bfc	; 0x2bfc <__addsf3>
    15cc:	f1 e0       	ldi	r31, 0x01	; 1
    15ce:	4f 1a       	sub	r4, r31
    15d0:	51 08       	sbc	r5, r1
    15d2:	61 08       	sbc	r6, r1
    15d4:	71 08       	sbc	r7, r1
    15d6:	04 50       	subi	r16, 0x04	; 4
    15d8:	11 09       	sbc	r17, r1
    15da:	e4 cf       	rjmp	.-56     	; 0x15a4 <__stack+0xca5>
    15dc:	cb 5b       	subi	r28, 0xBB	; 187
    15de:	de 4f       	sbci	r29, 0xFE	; 254
    15e0:	88 80       	ld	r8, Y
    15e2:	99 80       	ldd	r9, Y+1	; 0x01
    15e4:	aa 80       	ldd	r10, Y+2	; 0x02
    15e6:	bb 80       	ldd	r11, Y+3	; 0x03
    15e8:	c5 54       	subi	r28, 0x45	; 69
    15ea:	d1 40       	sbci	r29, 0x01	; 1
    15ec:	65 96       	adiw	r28, 0x15	; 21
    15ee:	0c ad       	ldd	r16, Y+60	; 0x3c
    15f0:	1d ad       	ldd	r17, Y+61	; 0x3d
    15f2:	2e ad       	ldd	r18, Y+62	; 0x3e
    15f4:	3f ad       	ldd	r19, Y+63	; 0x3f
    15f6:	65 97       	sbiw	r28, 0x15	; 21
    15f8:	81 14       	cp	r8, r1
    15fa:	91 04       	cpc	r9, r1
    15fc:	a1 04       	cpc	r10, r1
    15fe:	b1 04       	cpc	r11, r1
    1600:	e9 f4       	brne	.+58     	; 0x163c <__stack+0xd3d>
    1602:	c3 5a       	subi	r28, 0xA3	; 163
    1604:	de 4f       	sbci	r29, 0xFE	; 254
    1606:	a8 81       	ld	r26, Y
    1608:	b9 81       	ldd	r27, Y+1	; 0x01
    160a:	cd 55       	subi	r28, 0x5D	; 93
    160c:	d1 40       	sbci	r29, 0x01	; 1
    160e:	0d 93       	st	X+, r16
    1610:	1d 93       	st	X+, r17
    1612:	2d 93       	st	X+, r18
    1614:	3c 93       	st	X, r19
    1616:	13 97       	sbiw	r26, 0x03	; 3
    1618:	69 96       	adiw	r28, 0x19	; 25
    161a:	0c ad       	ldd	r16, Y+60	; 0x3c
    161c:	1d ad       	ldd	r17, Y+61	; 0x3d
    161e:	2e ad       	ldd	r18, Y+62	; 0x3e
    1620:	3f ad       	ldd	r19, Y+63	; 0x3f
    1622:	69 97       	sbiw	r28, 0x19	; 25
    1624:	fd 01       	movw	r30, r26
    1626:	04 83       	std	Z+4, r16	; 0x04
    1628:	15 83       	std	Z+5, r17	; 0x05
    162a:	26 83       	std	Z+6, r18	; 0x06
    162c:	37 83       	std	Z+7, r19	; 0x07
    162e:	18 96       	adiw	r26, 0x08	; 8
    1630:	6d 93       	st	X+, r22
    1632:	7d 93       	st	X+, r23
    1634:	8d 93       	st	X+, r24
    1636:	9c 93       	st	X, r25
    1638:	1b 97       	sbiw	r26, 0x0b	; 11
    163a:	1d c0       	rjmp	.+58     	; 0x1676 <__stack+0xd77>
    163c:	30 58       	subi	r19, 0x80	; 128
    163e:	c3 5a       	subi	r28, 0xA3	; 163
    1640:	de 4f       	sbci	r29, 0xFE	; 254
    1642:	e8 81       	ld	r30, Y
    1644:	f9 81       	ldd	r31, Y+1	; 0x01
    1646:	cd 55       	subi	r28, 0x5D	; 93
    1648:	d1 40       	sbci	r29, 0x01	; 1
    164a:	00 83       	st	Z, r16
    164c:	11 83       	std	Z+1, r17	; 0x01
    164e:	22 83       	std	Z+2, r18	; 0x02
    1650:	33 83       	std	Z+3, r19	; 0x03
    1652:	69 96       	adiw	r28, 0x19	; 25
    1654:	0c ad       	ldd	r16, Y+60	; 0x3c
    1656:	1d ad       	ldd	r17, Y+61	; 0x3d
    1658:	2e ad       	ldd	r18, Y+62	; 0x3e
    165a:	3f ad       	ldd	r19, Y+63	; 0x3f
    165c:	69 97       	sbiw	r28, 0x19	; 25
    165e:	30 58       	subi	r19, 0x80	; 128
    1660:	04 83       	std	Z+4, r16	; 0x04
    1662:	15 83       	std	Z+5, r17	; 0x05
    1664:	26 83       	std	Z+6, r18	; 0x06
    1666:	37 83       	std	Z+7, r19	; 0x07
    1668:	dc 01       	movw	r26, r24
    166a:	cb 01       	movw	r24, r22
    166c:	b0 58       	subi	r27, 0x80	; 128
    166e:	80 87       	std	Z+8, r24	; 0x08
    1670:	91 87       	std	Z+9, r25	; 0x09
    1672:	a2 87       	std	Z+10, r26	; 0x0a
    1674:	b3 87       	std	Z+11, r27	; 0x0b
    1676:	c7 5b       	subi	r28, 0xB7	; 183
    1678:	de 4f       	sbci	r29, 0xFE	; 254
    167a:	88 81       	ld	r24, Y
    167c:	99 81       	ldd	r25, Y+1	; 0x01
    167e:	c9 54       	subi	r28, 0x49	; 73
    1680:	d1 40       	sbci	r29, 0x01	; 1
    1682:	87 70       	andi	r24, 0x07	; 7
    1684:	99 27       	eor	r25, r25
    1686:	cf 58       	subi	r28, 0x8F	; 143
    1688:	de 4f       	sbci	r29, 0xFE	; 254
    168a:	e2 e1       	ldi	r30, 0x12	; 18
    168c:	0c 94 fa 14 	jmp	0x29f4	; 0x29f4 <__epilogue_restores__>

Disassembly of section .text:

00002ca6 <__gesf2>:
    2ca6:	0e 94 53 14 	call	0x28a6	; 0x28a6 <__fp_cmp>
    2caa:	08 f4       	brcc	.+2      	; 0x2cae <__gesf2+0x8>
    2cac:	8f ef       	ldi	r24, 0xFF	; 255
    2cae:	08 95       	ret

Disassembly of section .text.floorf:

00001f28 <floorf>:
    1f28:	4f 92       	push	r4
    1f2a:	5f 92       	push	r5
    1f2c:	6f 92       	push	r6
    1f2e:	7f 92       	push	r7
    1f30:	8f 92       	push	r8
    1f32:	9f 92       	push	r9
    1f34:	af 92       	push	r10
    1f36:	bf 92       	push	r11
    1f38:	cf 92       	push	r12
    1f3a:	df 92       	push	r13
    1f3c:	ef 92       	push	r14
    1f3e:	ff 92       	push	r15
    1f40:	cf 93       	push	r28
    1f42:	df 93       	push	r29
    1f44:	cd b7       	in	r28, 0x3d	; 61
    1f46:	de b7       	in	r29, 0x3e	; 62
    1f48:	28 97       	sbiw	r28, 0x08	; 8
    1f4a:	0f b6       	in	r0, 0x3f	; 63
    1f4c:	f8 94       	cli
    1f4e:	de bf       	out	0x3e, r29	; 62
    1f50:	0f be       	out	0x3f, r0	; 63
    1f52:	cd bf       	out	0x3d, r28	; 61
    1f54:	6b 01       	movw	r12, r22
    1f56:	7c 01       	movw	r14, r24
    1f58:	dc 01       	movw	r26, r24
    1f5a:	cb 01       	movw	r24, r22
    1f5c:	47 e1       	ldi	r20, 0x17	; 23
    1f5e:	b6 95       	lsr	r27
    1f60:	a7 95       	ror	r26
    1f62:	97 95       	ror	r25
    1f64:	87 95       	ror	r24
    1f66:	4a 95       	dec	r20
    1f68:	d1 f7       	brne	.-12     	; 0x1f5e <floorf+0x36>
    1f6a:	99 27       	eor	r25, r25
    1f6c:	8f 57       	subi	r24, 0x7F	; 127
    1f6e:	91 09       	sbc	r25, r1
    1f70:	87 31       	cpi	r24, 0x17	; 23
    1f72:	91 05       	cpc	r25, r1
    1f74:	9c f5       	brge	.+102    	; 0x1fdc <floorf+0xb4>
    1f76:	97 fd       	sbrc	r25, 7
    1f78:	36 c0       	rjmp	.+108    	; 0x1fe6 <floorf+0xbe>
    1f7a:	88 24       	eor	r8, r8
    1f7c:	8a 94       	dec	r8
    1f7e:	98 2c       	mov	r9, r8
    1f80:	3f e7       	ldi	r19, 0x7F	; 127
    1f82:	a3 2e       	mov	r10, r19
    1f84:	b1 2c       	mov	r11, r1
    1f86:	04 c0       	rjmp	.+8      	; 0x1f90 <floorf+0x68>
    1f88:	b5 94       	asr	r11
    1f8a:	a7 94       	ror	r10
    1f8c:	97 94       	ror	r9
    1f8e:	87 94       	ror	r8
    1f90:	8a 95       	dec	r24
    1f92:	d2 f7       	brpl	.-12     	; 0x1f88 <floorf+0x60>
    1f94:	d5 01       	movw	r26, r10
    1f96:	c4 01       	movw	r24, r8
    1f98:	8c 21       	and	r24, r12
    1f9a:	9d 21       	and	r25, r13
    1f9c:	ae 21       	and	r26, r14
    1f9e:	bf 21       	and	r27, r15
    1fa0:	89 2b       	or	r24, r25
    1fa2:	8a 2b       	or	r24, r26
    1fa4:	8b 2b       	or	r24, r27
    1fa6:	d1 f0       	breq	.+52     	; 0x1fdc <floorf+0xb4>
    1fa8:	20 e0       	ldi	r18, 0x00	; 0
    1faa:	30 e0       	ldi	r19, 0x00	; 0
    1fac:	40 e8       	ldi	r20, 0x80	; 128
    1fae:	5b e7       	ldi	r21, 0x7B	; 123
    1fb0:	c7 01       	movw	r24, r14
    1fb2:	b6 01       	movw	r22, r12
    1fb4:	0e 94 fe 15 	call	0x2bfc	; 0x2bfc <__addsf3>
    1fb8:	6d 83       	std	Y+5, r22	; 0x05
    1fba:	7e 83       	std	Y+6, r23	; 0x06
    1fbc:	8f 83       	std	Y+7, r24	; 0x07
    1fbe:	98 87       	std	Y+8, r25	; 0x08
    1fc0:	f7 fe       	sbrs	r15, 7
    1fc2:	04 c0       	rjmp	.+8      	; 0x1fcc <floorf+0xa4>
    1fc4:	c8 0c       	add	r12, r8
    1fc6:	d9 1c       	adc	r13, r9
    1fc8:	ea 1c       	adc	r14, r10
    1fca:	fb 1c       	adc	r15, r11
    1fcc:	80 94       	com	r8
    1fce:	90 94       	com	r9
    1fd0:	a0 94       	com	r10
    1fd2:	b0 94       	com	r11
    1fd4:	c8 20       	and	r12, r8
    1fd6:	d9 20       	and	r13, r9
    1fd8:	ea 20       	and	r14, r10
    1fda:	fb 20       	and	r15, r11
    1fdc:	5c 2d       	mov	r21, r12
    1fde:	4d 2d       	mov	r20, r13
    1fe0:	3e 2d       	mov	r19, r14
    1fe2:	2f 2d       	mov	r18, r15
    1fe4:	21 c0       	rjmp	.+66     	; 0x2028 <floorf+0x100>
    1fe6:	20 e0       	ldi	r18, 0x00	; 0
    1fe8:	30 e0       	ldi	r19, 0x00	; 0
    1fea:	40 e8       	ldi	r20, 0x80	; 128
    1fec:	5b e7       	ldi	r21, 0x7B	; 123
    1fee:	c7 01       	movw	r24, r14
    1ff0:	b6 01       	movw	r22, r12
    1ff2:	0e 94 fe 15 	call	0x2bfc	; 0x2bfc <__addsf3>
    1ff6:	69 83       	std	Y+1, r22	; 0x01
    1ff8:	7a 83       	std	Y+2, r23	; 0x02
    1ffa:	8b 83       	std	Y+3, r24	; 0x03
    1ffc:	9c 83       	std	Y+4, r25	; 0x04
    1ffe:	f7 fe       	sbrs	r15, 7
    2000:	0f c0       	rjmp	.+30     	; 0x2020 <floorf+0xf8>
    2002:	d7 01       	movw	r26, r14
    2004:	c6 01       	movw	r24, r12
    2006:	88 0f       	add	r24, r24
    2008:	99 1f       	adc	r25, r25
    200a:	aa 1f       	adc	r26, r26
    200c:	bb 1f       	adc	r27, r27
    200e:	89 2b       	or	r24, r25
    2010:	8a 2b       	or	r24, r26
    2012:	8b 2b       	or	r24, r27
    2014:	19 f3       	breq	.-58     	; 0x1fdc <floorf+0xb4>
    2016:	50 e0       	ldi	r21, 0x00	; 0
    2018:	40 e0       	ldi	r20, 0x00	; 0
    201a:	30 e8       	ldi	r19, 0x80	; 128
    201c:	2f eb       	ldi	r18, 0xBF	; 191
    201e:	04 c0       	rjmp	.+8      	; 0x2028 <floorf+0x100>
    2020:	50 e0       	ldi	r21, 0x00	; 0
    2022:	40 e0       	ldi	r20, 0x00	; 0
    2024:	30 e0       	ldi	r19, 0x00	; 0
    2026:	20 e0       	ldi	r18, 0x00	; 0
    2028:	65 2f       	mov	r22, r21
    202a:	74 2f       	mov	r23, r20
    202c:	83 2f       	mov	r24, r19
    202e:	92 2f       	mov	r25, r18
    2030:	28 96       	adiw	r28, 0x08	; 8
    2032:	0f b6       	in	r0, 0x3f	; 63
    2034:	f8 94       	cli
    2036:	de bf       	out	0x3e, r29	; 62
    2038:	0f be       	out	0x3f, r0	; 63
    203a:	cd bf       	out	0x3d, r28	; 61
    203c:	df 91       	pop	r29
    203e:	cf 91       	pop	r28
    2040:	ff 90       	pop	r15
    2042:	ef 90       	pop	r14
    2044:	df 90       	pop	r13
    2046:	cf 90       	pop	r12
    2048:	bf 90       	pop	r11
    204a:	af 90       	pop	r10
    204c:	9f 90       	pop	r9
    204e:	8f 90       	pop	r8
    2050:	7f 90       	pop	r7
    2052:	6f 90       	pop	r6
    2054:	5f 90       	pop	r5
    2056:	4f 90       	pop	r4
    2058:	08 95       	ret

Disassembly of section .text.scalbnf:

0000256e <scalbnf>:
    256e:	0f 93       	push	r16
    2570:	1f 93       	push	r17
    2572:	cf 93       	push	r28
    2574:	df 93       	push	r29
    2576:	ea 01       	movw	r28, r20
    2578:	40 38       	cpi	r20, 0x80	; 128
    257a:	51 05       	cpc	r21, r1
    257c:	d4 f0       	brlt	.+52     	; 0x25b2 <scalbnf+0x44>
    257e:	20 e0       	ldi	r18, 0x00	; 0
    2580:	30 e0       	ldi	r19, 0x00	; 0
    2582:	40 e0       	ldi	r20, 0x00	; 0
    2584:	5f e7       	ldi	r21, 0x7F	; 127
    2586:	0e 94 60 16 	call	0x2cc0	; 0x2cc0 <__mulsf3>
    258a:	9e 01       	movw	r18, r28
    258c:	2f 57       	subi	r18, 0x7F	; 127
    258e:	31 09       	sbc	r19, r1
    2590:	20 38       	cpi	r18, 0x80	; 128
    2592:	31 05       	cpc	r19, r1
    2594:	6c f1       	brlt	.+90     	; 0x25f0 <scalbnf+0x82>
    2596:	20 e0       	ldi	r18, 0x00	; 0
    2598:	30 e0       	ldi	r19, 0x00	; 0
    259a:	40 e0       	ldi	r20, 0x00	; 0
    259c:	5f e7       	ldi	r21, 0x7F	; 127
    259e:	0e 94 60 16 	call	0x2cc0	; 0x2cc0 <__mulsf3>
    25a2:	ce 5f       	subi	r28, 0xFE	; 254
    25a4:	d1 09       	sbc	r29, r1
    25a6:	c0 38       	cpi	r28, 0x80	; 128
    25a8:	d1 05       	cpc	r29, r1
    25aa:	1c f1       	brlt	.+70     	; 0x25f2 <scalbnf+0x84>
    25ac:	cf e7       	ldi	r28, 0x7F	; 127
    25ae:	d0 e0       	ldi	r29, 0x00	; 0
    25b0:	20 c0       	rjmp	.+64     	; 0x25f2 <scalbnf+0x84>
    25b2:	42 38       	cpi	r20, 0x82	; 130
    25b4:	5f 4f       	sbci	r21, 0xFF	; 255
    25b6:	ec f4       	brge	.+58     	; 0x25f2 <scalbnf+0x84>
    25b8:	20 e0       	ldi	r18, 0x00	; 0
    25ba:	30 e0       	ldi	r19, 0x00	; 0
    25bc:	40 e8       	ldi	r20, 0x80	; 128
    25be:	5c e0       	ldi	r21, 0x0C	; 12
    25c0:	0e 94 60 16 	call	0x2cc0	; 0x2cc0 <__mulsf3>
    25c4:	9e 01       	movw	r18, r28
    25c6:	2a 59       	subi	r18, 0x9A	; 154
    25c8:	3f 4f       	sbci	r19, 0xFF	; 255
    25ca:	22 38       	cpi	r18, 0x82	; 130
    25cc:	4f ef       	ldi	r20, 0xFF	; 255
    25ce:	34 07       	cpc	r19, r20
    25d0:	7c f4       	brge	.+30     	; 0x25f0 <scalbnf+0x82>
    25d2:	20 e0       	ldi	r18, 0x00	; 0
    25d4:	30 e0       	ldi	r19, 0x00	; 0
    25d6:	40 e8       	ldi	r20, 0x80	; 128
    25d8:	5c e0       	ldi	r21, 0x0C	; 12
    25da:	0e 94 60 16 	call	0x2cc0	; 0x2cc0 <__mulsf3>
    25de:	c4 53       	subi	r28, 0x34	; 52
    25e0:	df 4f       	sbci	r29, 0xFF	; 255
    25e2:	c2 38       	cpi	r28, 0x82	; 130
    25e4:	2f ef       	ldi	r18, 0xFF	; 255
    25e6:	d2 07       	cpc	r29, r18
    25e8:	24 f4       	brge	.+8      	; 0x25f2 <scalbnf+0x84>
    25ea:	c2 e8       	ldi	r28, 0x82	; 130
    25ec:	df ef       	ldi	r29, 0xFF	; 255
    25ee:	01 c0       	rjmp	.+2      	; 0x25f2 <scalbnf+0x84>
    25f0:	e9 01       	movw	r28, r18
    25f2:	9e 01       	movw	r18, r28
    25f4:	21 58       	subi	r18, 0x81	; 129
    25f6:	3f 4f       	sbci	r19, 0xFF	; 255
    25f8:	89 01       	movw	r16, r18
    25fa:	33 0f       	add	r19, r19
    25fc:	22 0b       	sbc	r18, r18
    25fe:	33 0b       	sbc	r19, r19
    2600:	a9 01       	movw	r20, r18
    2602:	98 01       	movw	r18, r16
    2604:	e7 e1       	ldi	r30, 0x17	; 23
    2606:	22 0f       	add	r18, r18
    2608:	33 1f       	adc	r19, r19
    260a:	44 1f       	adc	r20, r20
    260c:	55 1f       	adc	r21, r21
    260e:	ea 95       	dec	r30
    2610:	d1 f7       	brne	.-12     	; 0x2606 <scalbnf+0x98>
    2612:	0e 94 60 16 	call	0x2cc0	; 0x2cc0 <__mulsf3>
    2616:	df 91       	pop	r29
    2618:	cf 91       	pop	r28
    261a:	1f 91       	pop	r17
    261c:	0f 91       	pop	r16
    261e:	08 95       	ret

Disassembly of section .text.libgcc.div:

00002ab8 <__divmodhi4>:
    2ab8:	97 fb       	bst	r25, 7
    2aba:	07 2e       	mov	r0, r23
    2abc:	16 f4       	brtc	.+4      	; 0x2ac2 <__divmodhi4+0xa>
    2abe:	00 94       	com	r0
    2ac0:	07 d0       	rcall	.+14     	; 0x2ad0 <__divmodhi4_neg1>
    2ac2:	77 fd       	sbrc	r23, 7
    2ac4:	09 d0       	rcall	.+18     	; 0x2ad8 <__divmodhi4_neg2>
    2ac6:	0e 94 70 15 	call	0x2ae0	; 0x2ae0 <__udivmodhi4>
    2aca:	07 fc       	sbrc	r0, 7
    2acc:	05 d0       	rcall	.+10     	; 0x2ad8 <__divmodhi4_neg2>
    2ace:	3e f4       	brtc	.+14     	; 0x2ade <__divmodhi4_exit>

00002ad0 <__divmodhi4_neg1>:
    2ad0:	90 95       	com	r25
    2ad2:	81 95       	neg	r24
    2ad4:	9f 4f       	sbci	r25, 0xFF	; 255
    2ad6:	08 95       	ret

00002ad8 <__divmodhi4_neg2>:
    2ad8:	70 95       	com	r23
    2ada:	61 95       	neg	r22
    2adc:	7f 4f       	sbci	r23, 0xFF	; 255

00002ade <__divmodhi4_exit>:
    2ade:	08 95       	ret

Disassembly of section .text.libgcc:

00002c22 <__tablejump2__>:
    2c22:	ee 0f       	add	r30, r30
    2c24:	ff 1f       	adc	r31, r31
    2c26:	05 90       	lpm	r0, Z+
    2c28:	f4 91       	lpm	r31, Z
    2c2a:	e0 2d       	mov	r30, r0
    2c2c:	09 94       	ijmp

Disassembly of section .text.libgcc.mul:

00002bb0 <__mulshisi3>:
    2bb0:	b7 ff       	sbrs	r27, 7
    2bb2:	0c 94 c2 15 	jmp	0x2b84	; 0x2b84 <__muluhisi3>

00002bb6 <__mulohisi3>:
    2bb6:	0e 94 c2 15 	call	0x2b84	; 0x2b84 <__muluhisi3>
    2bba:	82 1b       	sub	r24, r18
    2bbc:	93 0b       	sbc	r25, r19
    2bbe:	08 95       	ret

Disassembly of section .text.libgcc.prologue:

000029bc <__prologue_saves__>:
    29bc:	2f 92       	push	r2
    29be:	3f 92       	push	r3
    29c0:	4f 92       	push	r4
    29c2:	5f 92       	push	r5
    29c4:	6f 92       	push	r6
    29c6:	7f 92       	push	r7
    29c8:	8f 92       	push	r8
    29ca:	9f 92       	push	r9
    29cc:	af 92       	push	r10
    29ce:	bf 92       	push	r11
    29d0:	cf 92       	push	r12
    29d2:	df 92       	push	r13
    29d4:	ef 92       	push	r14
    29d6:	ff 92       	push	r15
    29d8:	0f 93       	push	r16
    29da:	1f 93       	push	r17
    29dc:	cf 93       	push	r28
    29de:	df 93       	push	r29
    29e0:	cd b7       	in	r28, 0x3d	; 61
    29e2:	de b7       	in	r29, 0x3e	; 62
    29e4:	ca 1b       	sub	r28, r26
    29e6:	db 0b       	sbc	r29, r27
    29e8:	0f b6       	in	r0, 0x3f	; 63
    29ea:	f8 94       	cli
    29ec:	de bf       	out	0x3e, r29	; 62
    29ee:	0f be       	out	0x3f, r0	; 63
    29f0:	cd bf       	out	0x3d, r28	; 61
    29f2:	09 94       	ijmp

Disassembly of section .text.libgcc.prologue:

000029f4 <__epilogue_restores__>:
    29f4:	2a 88       	ldd	r2, Y+18	; 0x12
    29f6:	39 88       	ldd	r3, Y+17	; 0x11
    29f8:	48 88       	ldd	r4, Y+16	; 0x10
    29fa:	5f 84       	ldd	r5, Y+15	; 0x0f
    29fc:	6e 84       	ldd	r6, Y+14	; 0x0e
    29fe:	7d 84       	ldd	r7, Y+13	; 0x0d
    2a00:	8c 84       	ldd	r8, Y+12	; 0x0c
    2a02:	9b 84       	ldd	r9, Y+11	; 0x0b
    2a04:	aa 84       	ldd	r10, Y+10	; 0x0a
    2a06:	b9 84       	ldd	r11, Y+9	; 0x09
    2a08:	c8 84       	ldd	r12, Y+8	; 0x08
    2a0a:	df 80       	ldd	r13, Y+7	; 0x07
    2a0c:	ee 80       	ldd	r14, Y+6	; 0x06
    2a0e:	fd 80       	ldd	r15, Y+5	; 0x05
    2a10:	0c 81       	ldd	r16, Y+4	; 0x04
    2a12:	1b 81       	ldd	r17, Y+3	; 0x03
    2a14:	aa 81       	ldd	r26, Y+2	; 0x02
    2a16:	b9 81       	ldd	r27, Y+1	; 0x01
    2a18:	ce 0f       	add	r28, r30
    2a1a:	d1 1d       	adc	r29, r1
    2a1c:	0f b6       	in	r0, 0x3f	; 63
    2a1e:	f8 94       	cli
    2a20:	de bf       	out	0x3e, r29	; 62
    2a22:	0f be       	out	0x3f, r0	; 63
    2a24:	cd bf       	out	0x3d, r28	; 61
    2a26:	ed 01       	movw	r28, r26
    2a28:	08 95       	ret

Disassembly of section .text.libgcc:

00002bc0 <__xload_2>:
    2bc0:	57 fd       	sbrc	r21, 7
    2bc2:	03 c0       	rjmp	.+6      	; 0x2bca <__xload_2+0xa>
    2bc4:	65 91       	lpm	r22, Z+
    2bc6:	75 91       	lpm	r23, Z+
    2bc8:	08 95       	ret
    2bca:	61 91       	ld	r22, Z+
    2bcc:	71 91       	ld	r23, Z+
    2bce:	08 95       	ret

Disassembly of section .text.libgcc:

00002b6c <__xload_4>:
    2b6c:	57 fd       	sbrc	r21, 7
    2b6e:	05 c0       	rjmp	.+10     	; 0x2b7a <__xload_4+0xe>
    2b70:	65 91       	lpm	r22, Z+
    2b72:	75 91       	lpm	r23, Z+
    2b74:	85 91       	lpm	r24, Z+
    2b76:	95 91       	lpm	r25, Z+
    2b78:	08 95       	ret
    2b7a:	61 91       	ld	r22, Z+
    2b7c:	71 91       	ld	r23, Z+
    2b7e:	81 91       	ld	r24, Z+
    2b80:	91 91       	ld	r25, Z+
    2b82:	08 95       	ret

Disassembly of section .text.libgcc.div:

00002ae0 <__udivmodhi4>:
    2ae0:	aa 1b       	sub	r26, r26
    2ae2:	bb 1b       	sub	r27, r27
    2ae4:	51 e1       	ldi	r21, 0x11	; 17
    2ae6:	07 c0       	rjmp	.+14     	; 0x2af6 <__udivmodhi4_ep>

00002ae8 <__udivmodhi4_loop>:
    2ae8:	aa 1f       	adc	r26, r26
    2aea:	bb 1f       	adc	r27, r27
    2aec:	a6 17       	cp	r26, r22
    2aee:	b7 07       	cpc	r27, r23
    2af0:	10 f0       	brcs	.+4      	; 0x2af6 <__udivmodhi4_ep>
    2af2:	a6 1b       	sub	r26, r22
    2af4:	b7 0b       	sbc	r27, r23

00002af6 <__udivmodhi4_ep>:
    2af6:	88 1f       	adc	r24, r24
    2af8:	99 1f       	adc	r25, r25
    2afa:	5a 95       	dec	r21
    2afc:	a9 f7       	brne	.-22     	; 0x2ae8 <__udivmodhi4_loop>
    2afe:	80 95       	com	r24
    2b00:	90 95       	com	r25
    2b02:	bc 01       	movw	r22, r24
    2b04:	cd 01       	movw	r24, r26
    2b06:	08 95       	ret

Disassembly of section .text.libgcc.mul:

00002b84 <__muluhisi3>:
    2b84:	0e 94 a7 15 	call	0x2b4e	; 0x2b4e <__umulhisi3>
    2b88:	a5 9f       	mul	r26, r21
    2b8a:	90 0d       	add	r25, r0
    2b8c:	b4 9f       	mul	r27, r20
    2b8e:	90 0d       	add	r25, r0
    2b90:	a4 9f       	mul	r26, r20
    2b92:	80 0d       	add	r24, r0
    2b94:	91 1d       	adc	r25, r1
    2b96:	11 24       	eor	r1, r1
    2b98:	08 95       	ret

Disassembly of section .text.libgcc.mul:

00002b4e <__umulhisi3>:
    2b4e:	a2 9f       	mul	r26, r18
    2b50:	b0 01       	movw	r22, r0
    2b52:	b3 9f       	mul	r27, r19
    2b54:	c0 01       	movw	r24, r0
    2b56:	a3 9f       	mul	r26, r19
    2b58:	70 0d       	add	r23, r0
    2b5a:	81 1d       	adc	r24, r1
    2b5c:	11 24       	eor	r1, r1
    2b5e:	91 1d       	adc	r25, r1
    2b60:	b2 9f       	mul	r27, r18
    2b62:	70 0d       	add	r23, r0
    2b64:	81 1d       	adc	r24, r1
    2b66:	11 24       	eor	r1, r1
    2b68:	91 1d       	adc	r25, r1
    2b6a:	08 95       	ret

Disassembly of section .text.__dummy_fini:

00002cd6 <_fini>:
    2cd6:	08 95       	ret

Disassembly of section .text.__dummy_funcs_on_exit:

00002cd8 <__funcs_on_exit>:
    2cd8:	08 95       	ret

Disassembly of section .text.__dummy_simulator_exit:

00002cda <__simulator_exit>:
    2cda:	08 95       	ret

Disassembly of section .text.exit:

00002b9a <exit>:
    2b9a:	ec 01       	movw	r28, r24
    2b9c:	0e 94 6c 16 	call	0x2cd8	; 0x2cd8 <__funcs_on_exit>
    2ba0:	0e 94 6b 16 	call	0x2cd6	; 0x2cd6 <_fini>
    2ba4:	ce 01       	movw	r24, r28
    2ba6:	0e 94 6d 16 	call	0x2cda	; 0x2cda <__simulator_exit>
    2baa:	ce 01       	movw	r24, r28
    2bac:	0e 94 69 16 	call	0x2cd2	; 0x2cd2 <_Exit>

Disassembly of section .text.strlen:

00002a8c <strlen>:
    2a8c:	cf 92       	push	r12
    2a8e:	df 92       	push	r13
    2a90:	ef 92       	push	r14
    2a92:	6b 01       	movw	r12, r22
    2a94:	e8 2e       	mov	r14, r24
    2a96:	a8 2f       	mov	r26, r24
    2a98:	cb 01       	movw	r24, r22
    2a9a:	fc 01       	movw	r30, r24
    2a9c:	24 91       	lpm	r18, Z
    2a9e:	a7 fd       	sbrc	r26, 7
    2aa0:	20 81       	ld	r18, Z
    2aa2:	22 23       	and	r18, r18
    2aa4:	19 f0       	breq	.+6      	; 0x2aac <strlen+0x20>
    2aa6:	01 96       	adiw	r24, 0x01	; 1
    2aa8:	a1 1d       	adc	r26, r1
    2aaa:	f7 cf       	rjmp	.-18     	; 0x2a9a <strlen+0xe>
    2aac:	8c 19       	sub	r24, r12
    2aae:	9d 09       	sbc	r25, r13
    2ab0:	ef 90       	pop	r14
    2ab2:	df 90       	pop	r13
    2ab4:	cf 90       	pop	r12
    2ab6:	08 95       	ret

Disassembly of section .text._Exit:

00002cd2 <_Exit>:
    2cd2:	0e 94 77 00 	call	0xee	; 0xee <_exit>
