
1 Plotter.elf:     file format elf32-avr

Sections:
Idx Name          Size      VMA       LMA       File off  Algn
  0 .data         00000000  00800100  00800100  000008b0  2**0
                  ALLOC, LOAD, DATA
  1 .text         00000108  00000000  00000000  000000b4  2**1
                  CONTENTS, ALLOC, LOAD, READONLY, CODE
  2 .bss          00000100  00800100  00800100  000008b0  2**0
                  ALLOC
  3 .comment      0000002f  00000000  00000000  000008b0  2**0
                  CONTENTS, READONLY
  4 .stack.descriptors.hdr 0000001c  00000000  00000000  000008df  2**0
                  CONTENTS, READONLY
  5 .debug_aranges 000000f8  00000000  00000000  000008fb  2**0
                  CONTENTS, READONLY, DEBUGGING
  6 .debug_info   000019d6  00000000  00000000  000009f3  2**0
                  CONTENTS, READONLY, DEBUGGING
  7 .debug_abbrev 000008c8  00000000  00000000  000023c9  2**0
                  CONTENTS, READONLY, DEBUGGING
  8 .debug_line   00000b03  00000000  00000000  00002c91  2**0
                  CONTENTS, READONLY, DEBUGGING
  9 .debug_frame  00000300  00000000  00000000  00003794  2**2
                  CONTENTS, READONLY, DEBUGGING
 10 .debug_str    00000289  00000000  00000000  00003a94  2**0
                  CONTENTS, READONLY, DEBUGGING
 11 .debug_loc    00000fe4  00000000  00000000  00003d1d  2**0
                  CONTENTS, READONLY, DEBUGGING
 12 .debug_ranges 00000118  00000000  00000000  00004d01  2**0
                  CONTENTS, READONLY, DEBUGGING
 13 .text         00000004  000007ee  000007ee  000008a2  2**1
                  CONTENTS, ALLOC, LOAD, READONLY, CODE
 14 .note.gnu.avr.deviceinfo 00000040  00000000  00000000  00004e1c  2**2
                  CONTENTS, READONLY, DEBUGGING
 15 .text.timer1_init_1ms 00000028  000006f8  000006f8  000007ac  2**1
                  CONTENTS, ALLOC, LOAD, READONLY, CODE
 16 .text.apagar  0000000a  0000078a  0000078a  0000083e  2**1
                  CONTENTS, ALLOC, LOAD, READONLY, CODE
 17 .text.Subir_s 0000000a  00000794  00000794  00000848  2**1
                  CONTENTS, ALLOC, LOAD, READONLY, CODE
 18 .text.Bajar   0000000a  0000079e  0000079e  00000852  2**1
                  CONTENTS, ALLOC, LOAD, READONLY, CODE
 19 .text.Subir   0000000a  000007a8  000007a8  0000085c  2**1
                  CONTENTS, ALLOC, LOAD, READONLY, CODE
 20 .text.Izquierda 0000000a  000007b2  000007b2  00000866  2**1
                  CONTENTS, ALLOC, LOAD, READONLY, CODE
 21 .text.Derecha 0000000a  000007bc  000007bc  00000870  2**1
                  CONTENTS, ALLOC, LOAD, READONLY, CODE
 22 .text.AbajoIzquierda 0000000a  000007c6  000007c6  0000087a  2**1
                  CONTENTS, ALLOC, LOAD, READONLY, CODE
 23 .text.AbajoDerecha 0000000a  000007d0  000007d0  00000884  2**1
                  CONTENTS, ALLOC, LOAD, READONLY, CODE
 24 .text.centrar 00000024  00000720  00000720  000007d4  2**1
                  CONTENTS, ALLOC, LOAD, READONLY, CODE
 25 .text.ArribaIzquierda 0000000a  000007da  000007da  0000088e  2**1
                  CONTENTS, ALLOC, LOAD, READONLY, CODE
 26 .text.ArribaDerecha 0000000a  000007e4  000007e4  00000898  2**1
                  CONTENTS, ALLOC, LOAD, READONLY, CODE
 27 .text.ejecutar_circulo_sinc 00000104  0000035a  0000035a  0000040e  2**1
                  CONTENTS, ALLOC, LOAD, READONLY, CODE
 28 .text.peurbas 00000058  000005cc  000005cc  00000680  2**1
                  CONTENTS, ALLOC, LOAD, READONLY, CODE
 29 .text.__vector_13 0000002e  0000069e  0000069e  00000752  2**1
                  CONTENTS, ALLOC, LOAD, READONLY, CODE
 30 .text.appendSerial 00000024  00000744  00000744  000007f8  2**1
                  CONTENTS, ALLOC, LOAD, READONLY, CODE
 31 .text.serialWrite 0000007e  000004e6  000004e6  0000059a  2**1
                  CONTENTS, ALLOC, LOAD, READONLY, CODE
 32 .text.__vector_19 00000068  00000564  00000564  00000618  2**1
                  CONTENTS, ALLOC, LOAD, READONLY, CODE
 33 .text.Chardos 00000034  0000066a  0000066a  0000071e  2**1
                  CONTENTS, ALLOC, LOAD, READONLY, CODE
 34 .progmemx.data 0000003d  0000031c  0000031c  000003d0  2**0
                  CONTENTS, ALLOC, LOAD, READONLY, PROGMEMX
 35 .text.main    00000088  0000045e  0000045e  00000512  2**1
                  CONTENTS, ALLOC, LOAD, READONLY, CODE
 36 .text.__vector_18 00000046  00000624  00000624  000006d8  2**1
                  CONTENTS, ALLOC, LOAD, READONLY, CODE
 37 .progmemx.data.CIRCLE_DATA_TIME 0000014a  00000108  00000108  000001bc  2**0
                  CONTENTS, ALLOC, LOAD, READONLY, PROGMEMX
 38 .progmemx.data.CIRCLE_DATA 000000ca  00000252  00000252  00000306  2**0
                  CONTENTS, ALLOC, LOAD, READONLY, PROGMEMX
 39 .bss.CONTADOR 00000001  00800200  00800200  000008b0  2**0
                  ALLOC
 40 .bss.rxWritePos 00000001  00800201  00800201  000008b0  2**0
                  ALLOC
 41 .bss.rxReadPos 00000001  00800202  00800202  000008b0  2**0
                  ALLOC
 42 .bss.serialWritePos 00000001  00800203  00800203  000008b0  2**0
                  ALLOC
 43 .bss.serialReadPos 00000001  00800204  00800204  000008b0  2**0
                  ALLOC
 44 .text.libgcc  0000000c  0000077e  0000077e  00000832  2**1
                  CONTENTS, ALLOC, LOAD, READONLY, CODE
 45 .text.__dummy_fini 00000002  000007f6  000007f6  000008aa  2**1
                  CONTENTS, ALLOC, LOAD, READONLY, CODE
 46 .text.__dummy_funcs_on_exit 00000002  000007f8  000007f8  000008ac  2**1
                  CONTENTS, ALLOC, LOAD, READONLY, CODE
 47 .text.__dummy_simulator_exit 00000002  000007fa  000007fa  000008ae  2**1
                  CONTENTS, ALLOC, LOAD, READONLY, CODE
 48 .text.exit    00000016  00000768  00000768  0000081c  2**1
                  CONTENTS, ALLOC, LOAD, READONLY, CODE
 49 .text.strlen  0000002c  000006cc  000006cc  00000780  2**1
                  CONTENTS, ALLOC, LOAD, READONLY, CODE
 50 .text._Exit   00000004  000007f2  000007f2  000008a6  2**1
                  CONTENTS, ALLOC, LOAD, READONLY, CODE

Disassembly of section .text:

00000000 <__vectors>:
   0:	0c 94 5a 00 	jmp	0xb4	; 0xb4 <__ctors_end>
   4:	0c 94 f7 03 	jmp	0x7ee	; 0x7ee <__bad_interrupt>
   8:	0c 94 f7 03 	jmp	0x7ee	; 0x7ee <__bad_interrupt>
   c:	0c 94 f7 03 	jmp	0x7ee	; 0x7ee <__bad_interrupt>
  10:	0c 94 f7 03 	jmp	0x7ee	; 0x7ee <__bad_interrupt>
  14:	0c 94 f7 03 	jmp	0x7ee	; 0x7ee <__bad_interrupt>
  18:	0c 94 f7 03 	jmp	0x7ee	; 0x7ee <__bad_interrupt>
  1c:	0c 94 f7 03 	jmp	0x7ee	; 0x7ee <__bad_interrupt>
  20:	0c 94 f7 03 	jmp	0x7ee	; 0x7ee <__bad_interrupt>
  24:	0c 94 f7 03 	jmp	0x7ee	; 0x7ee <__bad_interrupt>
  28:	0c 94 f7 03 	jmp	0x7ee	; 0x7ee <__bad_interrupt>
  2c:	0c 94 f7 03 	jmp	0x7ee	; 0x7ee <__bad_interrupt>
  30:	0c 94 f7 03 	jmp	0x7ee	; 0x7ee <__bad_interrupt>
  34:	0c 94 4f 03 	jmp	0x69e	; 0x69e <__vector_13>
  38:	0c 94 f7 03 	jmp	0x7ee	; 0x7ee <__bad_interrupt>
  3c:	0c 94 f7 03 	jmp	0x7ee	; 0x7ee <__bad_interrupt>
  40:	0c 94 f7 03 	jmp	0x7ee	; 0x7ee <__bad_interrupt>
  44:	0c 94 f7 03 	jmp	0x7ee	; 0x7ee <__bad_interrupt>
  48:	0c 94 12 03 	jmp	0x624	; 0x624 <__vector_18>
  4c:	0c 94 b2 02 	jmp	0x564	; 0x564 <__vector_19>
  50:	0c 94 f7 03 	jmp	0x7ee	; 0x7ee <__bad_interrupt>
  54:	0c 94 f7 03 	jmp	0x7ee	; 0x7ee <__bad_interrupt>
  58:	0c 94 f7 03 	jmp	0x7ee	; 0x7ee <__bad_interrupt>
  5c:	0c 94 f7 03 	jmp	0x7ee	; 0x7ee <__bad_interrupt>
  60:	0c 94 f7 03 	jmp	0x7ee	; 0x7ee <__bad_interrupt>
  64:	0c 94 f7 03 	jmp	0x7ee	; 0x7ee <__bad_interrupt>
  68:	02 02       	muls	r16, r18
  6a:	ff 01       	movw	r30, r30
  6c:	e9 01       	movw	r28, r18
  6e:	e6 01       	movw	r28, r12
  70:	f0 01       	movw	r30, r0
  72:	ec 01       	movw	r28, r24
  74:	05 02       	muls	r16, r21
  76:	f6 01       	movw	r30, r12
  78:	f3 01       	movw	r30, r6
  7a:	fc 01       	movw	r30, r24
  7c:	f9 01       	movw	r30, r18
  7e:	06 03       	mulsu	r16, r22
  80:	fa 02       	muls	r31, r26
  82:	0c 03       	fmul	r16, r20
  84:	11 03       	mulsu	r17, r17
  86:	11 03       	mulsu	r17, r17
  88:	11 03       	mulsu	r17, r17
  8a:	11 03       	mulsu	r17, r17
  8c:	0f 03       	fmul	r16, r23
  8e:	11 03       	mulsu	r17, r17
  90:	fd 02       	muls	r31, r29
  92:	11 03       	mulsu	r17, r17
  94:	11 03       	mulsu	r17, r17
  96:	11 03       	mulsu	r17, r17
  98:	11 03       	mulsu	r17, r17
  9a:	09 03       	fmul	r16, r17
  9c:	00 03       	mulsu	r16, r16
  9e:	f4 02       	muls	r31, r20
  a0:	11 03       	mulsu	r17, r17
  a2:	f7 02       	muls	r31, r23
  a4:	11 03       	mulsu	r17, r17
  a6:	11 03       	mulsu	r17, r17
  a8:	f1 02       	muls	r31, r17
  aa:	11 03       	mulsu	r17, r17
  ac:	03 03       	mulsu	r16, r19

000000ae <.dinit>:
  ae:	01 00       	.word	0x0001	; ????
  b0:	02 05       	cpc	r16, r2
  b2:	80 00       	.word	0x0080	; ????

000000b4 <__ctors_end>:
  b4:	11 24       	eor	r1, r1
  b6:	1f be       	out	0x3f, r1	; 63
  b8:	cf ef       	ldi	r28, 0xFF	; 255
  ba:	d8 e0       	ldi	r29, 0x08	; 8
  bc:	de bf       	out	0x3e, r29	; 62
  be:	cd bf       	out	0x3d, r28	; 61

000000c0 <__do_copy_data>:
  c0:	ee ea       	ldi	r30, 0xAE	; 174
  c2:	f0 e0       	ldi	r31, 0x00	; 0
  c4:	40 e0       	ldi	r20, 0x00	; 0
  c6:	17 c0       	rjmp	.+46     	; 0xf6 <__do_clear_bss+0x8>
  c8:	b5 91       	lpm	r27, Z+
  ca:	a5 91       	lpm	r26, Z+
  cc:	35 91       	lpm	r19, Z+
  ce:	25 91       	lpm	r18, Z+
  d0:	05 91       	lpm	r16, Z+
  d2:	07 fd       	sbrc	r16, 7
  d4:	0c c0       	rjmp	.+24     	; 0xee <__do_clear_bss>
  d6:	95 91       	lpm	r25, Z+
  d8:	85 91       	lpm	r24, Z+
  da:	ef 01       	movw	r28, r30
  dc:	f9 2f       	mov	r31, r25
  de:	e8 2f       	mov	r30, r24
  e0:	05 90       	lpm	r0, Z+
  e2:	0d 92       	st	X+, r0
  e4:	a2 17       	cp	r26, r18
  e6:	b3 07       	cpc	r27, r19
  e8:	d9 f7       	brne	.-10     	; 0xe0 <__do_copy_data+0x20>
  ea:	fe 01       	movw	r30, r28
  ec:	04 c0       	rjmp	.+8      	; 0xf6 <__do_clear_bss+0x8>

000000ee <__do_clear_bss>:
  ee:	1d 92       	st	X+, r1
  f0:	a2 17       	cp	r26, r18
  f2:	b3 07       	cpc	r27, r19
  f4:	e1 f7       	brne	.-8      	; 0xee <__do_clear_bss>
  f6:	e3 3b       	cpi	r30, 0xB3	; 179
  f8:	f4 07       	cpc	r31, r20
  fa:	31 f7       	brne	.-52     	; 0xc8 <__do_copy_data+0x8>
  fc:	0e 94 2f 02 	call	0x45e	; 0x45e <main>
 100:	0c 94 b4 03 	jmp	0x768	; 0x768 <exit>

00000104 <_exit>:
 104:	f8 94       	cli

00000106 <__stop_program>:
 106:	ff cf       	rjmp	.-2      	; 0x106 <__stop_program>

Disassembly of section .text:

000007ee <__bad_interrupt>:
 7ee:	0c 94 00 00 	jmp	0	; 0x0 <__vectors>

Disassembly of section .text.timer1_init_1ms:

000006f8 <timer1_init_1ms>:
	#else
		//round up by default
		__ticks_dc = (uint32_t)(ceil(fabs(__tmp)));
	#endif

	__builtin_avr_delay_cycles(__ticks_dc);
 6f8:	10 92 80 00 	sts	0x0080, r1	; 0x800080 <__TEXT_REGION_LENGTH__+0x7f8080>
 6fc:	e1 e8       	ldi	r30, 0x81	; 129
 6fe:	f0 e0       	ldi	r31, 0x00	; 0
 700:	10 82       	st	Z, r1
 702:	80 81       	ld	r24, Z
 704:	88 60       	ori	r24, 0x08	; 8
 706:	80 83       	st	Z, r24
 708:	89 ef       	ldi	r24, 0xF9	; 249
 70a:	90 e0       	ldi	r25, 0x00	; 0
 70c:	90 93 89 00 	sts	0x0089, r25	; 0x800089 <__TEXT_REGION_LENGTH__+0x7f8089>
 710:	80 93 88 00 	sts	0x0088, r24	; 0x800088 <__TEXT_REGION_LENGTH__+0x7f8088>
 714:	80 81       	ld	r24, Z
 716:	83 60       	ori	r24, 0x03	; 3
 718:	80 83       	st	Z, r24
 71a:	82 e0       	ldi	r24, 0x02	; 2
 71c:	86 bb       	out	0x16, r24	; 22
 71e:	08 95       	ret

Disassembly of section .text.apagar:

0000078a <apagar>:
 78a:	8b b1       	in	r24, 0x0b	; 11
 78c:	83 70       	andi	r24, 0x03	; 3
 78e:	88 60       	ori	r24, 0x08	; 8
 790:	8b b9       	out	0x0b, r24	; 11
 792:	08 95       	ret

Disassembly of section .text.Subir_s:

00000794 <Subir_s>:
 794:	8b b1       	in	r24, 0x0b	; 11
 796:	83 70       	andi	r24, 0x03	; 3
 798:	84 60       	ori	r24, 0x04	; 4
 79a:	8b b9       	out	0x0b, r24	; 11
 79c:	08 95       	ret

Disassembly of section .text.Bajar:

0000079e <Bajar>:
 79e:	8b b1       	in	r24, 0x0b	; 11
 7a0:	8f 70       	andi	r24, 0x0F	; 15
 7a2:	80 61       	ori	r24, 0x10	; 16
 7a4:	8b b9       	out	0x0b, r24	; 11
 7a6:	08 95       	ret

Disassembly of section .text.Subir:

000007a8 <Subir>:
 7a8:	8b b1       	in	r24, 0x0b	; 11
 7aa:	8f 70       	andi	r24, 0x0F	; 15
 7ac:	80 62       	ori	r24, 0x20	; 32
 7ae:	8b b9       	out	0x0b, r24	; 11
 7b0:	08 95       	ret

Disassembly of section .text.Izquierda:

000007b2 <Izquierda>:
 7b2:	8b b1       	in	r24, 0x0b	; 11
 7b4:	8f 70       	andi	r24, 0x0F	; 15
 7b6:	80 64       	ori	r24, 0x40	; 64
 7b8:	8b b9       	out	0x0b, r24	; 11
 7ba:	08 95       	ret

Disassembly of section .text.Derecha:

000007bc <Derecha>:
 7bc:	8b b1       	in	r24, 0x0b	; 11
 7be:	8f 70       	andi	r24, 0x0F	; 15
 7c0:	80 68       	ori	r24, 0x80	; 128
 7c2:	8b b9       	out	0x0b, r24	; 11
 7c4:	08 95       	ret

Disassembly of section .text.AbajoIzquierda:

000007c6 <AbajoIzquierda>:
PORTD = (PORTD & 0b00001111) | 0b10000000;
}

void AbajoIzquierda(void)
{
	PORTD = (PORTD & 0b00001111) | 0b01010000; // D6 y D4
 7c6:	8b b1       	in	r24, 0x0b	; 11
 7c8:	8f 70       	andi	r24, 0x0F	; 15
 7ca:	80 65       	ori	r24, 0x50	; 80
 7cc:	8b b9       	out	0x0b, r24	; 11
 7ce:	08 95       	ret

Disassembly of section .text.AbajoDerecha:

000007d0 <AbajoDerecha>:
}

void AbajoDerecha(void){
	PORTD = (PORTD & 0b00001111) | 0b10010000; // D6 y D4
 7d0:	8b b1       	in	r24, 0x0b	; 11
 7d2:	8f 70       	andi	r24, 0x0F	; 15
 7d4:	80 69       	ori	r24, 0x90	; 144
 7d6:	8b b9       	out	0x0b, r24	; 11
 7d8:	08 95       	ret

Disassembly of section .text.centrar:

00000720 <centrar>:
 720:	10 92 00 02 	sts	0x0200, r1	; 0x800200 <_end>
 724:	82 ec       	ldi	r24, 0xC2	; 194
 726:	80 93 85 00 	sts	0x0085, r24	; 0x800085 <__TEXT_REGION_LENGTH__+0x7f8085>
 72a:	87 ef       	ldi	r24, 0xF7	; 247
 72c:	80 93 84 00 	sts	0x0084, r24	; 0x800084 <__TEXT_REGION_LENGTH__+0x7f8084>
 730:	02 c0       	rjmp	.+4      	; 0x736 <centrar+0x16>
 732:	0e 94 e8 03 	call	0x7d0	; 0x7d0 <AbajoDerecha>
 736:	80 91 00 02 	lds	r24, 0x0200	; 0x800200 <_end>
 73a:	86 30       	cpi	r24, 0x06	; 6
 73c:	d0 f3       	brcs	.-12     	; 0x732 <centrar+0x12>
 73e:	0e 94 c5 03 	call	0x78a	; 0x78a <apagar>
 742:	08 95       	ret

Disassembly of section .text.ArribaIzquierda:

000007da <ArribaIzquierda>:
}

void ArribaIzquierda(void)
{
	PORTD = (PORTD & 0b00001111) | 0b01100000; // D3 y D4
 7da:	8b b1       	in	r24, 0x0b	; 11
 7dc:	8f 70       	andi	r24, 0x0F	; 15
 7de:	80 66       	ori	r24, 0x60	; 96
 7e0:	8b b9       	out	0x0b, r24	; 11
 7e2:	08 95       	ret

Disassembly of section .text.ArribaDerecha:

000007e4 <ArribaDerecha>:
}

void ArribaDerecha(void){
	PORTD = (PORTD & 0b00001111) | 0b10100000; // D6 y D4
 7e4:	8b b1       	in	r24, 0x0b	; 11
 7e6:	8f 70       	andi	r24, 0x0F	; 15
 7e8:	80 6a       	ori	r24, 0xA0	; 160
 7ea:	8b b9       	out	0x0b, r24	; 11
 7ec:	08 95       	ret

Disassembly of section .text.ejecutar_circulo_sinc:

0000035a <ejecutar_circulo_sinc>:
 35a:	6f 92       	push	r6
 35c:	7f 92       	push	r7
 35e:	8f 92       	push	r8
 360:	af 92       	push	r10
 362:	bf 92       	push	r11
 364:	cf 92       	push	r12
 366:	ef 92       	push	r14
 368:	ff 92       	push	r15
 36a:	0f 93       	push	r16
 36c:	1f 93       	push	r17
 36e:	cf 93       	push	r28
 370:	5b 01       	movw	r10, r22
 372:	c8 2e       	mov	r12, r24
 374:	39 01       	movw	r6, r18
 376:	84 2e       	mov	r8, r20
 378:	2f e3       	ldi	r18, 0x3F	; 63
 37a:	8d e0       	ldi	r24, 0x0D	; 13
 37c:	93 e0       	ldi	r25, 0x03	; 3
 37e:	21 50       	subi	r18, 0x01	; 1
 380:	80 40       	sbci	r24, 0x00	; 0
 382:	90 40       	sbci	r25, 0x00	; 0
 384:	e1 f7       	brne	.-8      	; 0x37e <ejecutar_circulo_sinc+0x24>
 386:	00 c0       	rjmp	.+0      	; 0x388 <ejecutar_circulo_sinc+0x2e>
 388:	00 00       	nop
 38a:	e1 2c       	mov	r14, r1
 38c:	f1 2c       	mov	r15, r1
 38e:	4c c0       	rjmp	.+152    	; 0x428 <__EEPROM_REGION_LENGTH__+0x28>
 390:	97 01       	movw	r18, r14
 392:	0f 2c       	mov	r0, r15
 394:	00 0c       	add	r0, r0
 396:	44 0b       	sbc	r20, r20
 398:	ac 2d       	mov	r26, r12
 39a:	c5 01       	movw	r24, r10
 39c:	82 0f       	add	r24, r18
 39e:	93 1f       	adc	r25, r19
 3a0:	a4 1f       	adc	r26, r20
 3a2:	fc 01       	movw	r30, r24
 3a4:	84 91       	lpm	r24, Z
 3a6:	26 0d       	add	r18, r6
 3a8:	37 1d       	adc	r19, r7
 3aa:	48 1d       	adc	r20, r8
 3ac:	64 2f       	mov	r22, r20
 3ae:	a9 01       	movw	r20, r18
 3b0:	fa 01       	movw	r30, r20
 3b2:	c4 91       	lpm	r28, Z
 3b4:	87 30       	cpi	r24, 0x07	; 7
 3b6:	e1 f1       	breq	.+120    	; 0x430 <__EEPROM_REGION_LENGTH__+0x30>
 3b8:	90 e0       	ldi	r25, 0x00	; 0
 3ba:	fc 01       	movw	r30, r24
 3bc:	31 97       	sbiw	r30, 0x01	; 1
 3be:	eb 30       	cpi	r30, 0x0B	; 11
 3c0:	f1 05       	cpc	r31, r1
 3c2:	18 f5       	brcc	.+70     	; 0x40a <__EEPROM_REGION_LENGTH__+0xa>
 3c4:	ec 5c       	subi	r30, 0xCC	; 204
 3c6:	ff 4f       	sbci	r31, 0xFF	; 255
 3c8:	0c 94 bf 03 	jmp	0x77e	; 0x77e <__tablejump2__>
 3cc:	0e 94 d4 03 	call	0x7a8	; 0x7a8 <Subir>
 3d0:	05 c0       	rjmp	.+10     	; 0x3dc <ejecutar_circulo_sinc+0x82>
 3d2:	0e 94 cf 03 	call	0x79e	; 0x79e <Bajar>
 3d6:	02 c0       	rjmp	.+4      	; 0x3dc <ejecutar_circulo_sinc+0x82>
 3d8:	0e 94 d9 03 	call	0x7b2	; 0x7b2 <Izquierda>
 3dc:	80 e0       	ldi	r24, 0x00	; 0
 3de:	1f c0       	rjmp	.+62     	; 0x41e <__EEPROM_REGION_LENGTH__+0x1e>
 3e0:	0e 94 de 03 	call	0x7bc	; 0x7bc <Derecha>
 3e4:	fb cf       	rjmp	.-10     	; 0x3dc <ejecutar_circulo_sinc+0x82>
 3e6:	0e 94 ed 03 	call	0x7da	; 0x7da <ArribaIzquierda>
 3ea:	f8 cf       	rjmp	.-16     	; 0x3dc <ejecutar_circulo_sinc+0x82>
 3ec:	0e 94 f2 03 	call	0x7e4	; 0x7e4 <ArribaDerecha>
 3f0:	f5 cf       	rjmp	.-22     	; 0x3dc <ejecutar_circulo_sinc+0x82>
 3f2:	0e 94 e3 03 	call	0x7c6	; 0x7c6 <AbajoIzquierda>
 3f6:	f2 cf       	rjmp	.-28     	; 0x3dc <ejecutar_circulo_sinc+0x82>
 3f8:	0e 94 e8 03 	call	0x7d0	; 0x7d0 <AbajoDerecha>
 3fc:	ef cf       	rjmp	.-34     	; 0x3dc <ejecutar_circulo_sinc+0x82>
 3fe:	0e 94 c5 03 	call	0x78a	; 0x78a <apagar>
 402:	ec cf       	rjmp	.-40     	; 0x3dc <ejecutar_circulo_sinc+0x82>
 404:	0e 94 ca 03 	call	0x794	; 0x794 <Subir_s>
 408:	e9 cf       	rjmp	.-46     	; 0x3dc <ejecutar_circulo_sinc+0x82>
 40a:	0e 94 c5 03 	call	0x78a	; 0x78a <apagar>
 40e:	e6 cf       	rjmp	.-52     	; 0x3dc <ejecutar_circulo_sinc+0x82>
 410:	e3 ec       	ldi	r30, 0xC3	; 195
 412:	f9 e0       	ldi	r31, 0x09	; 9
 414:	31 97       	sbiw	r30, 0x01	; 1
 416:	f1 f7       	brne	.-4      	; 0x414 <__EEPROM_REGION_LENGTH__+0x14>
 418:	00 c0       	rjmp	.+0      	; 0x41a <__EEPROM_REGION_LENGTH__+0x1a>
 41a:	00 00       	nop
 41c:	8f 5f       	subi	r24, 0xFF	; 255
 41e:	8c 17       	cp	r24, r28
 420:	b8 f3       	brcs	.-18     	; 0x410 <__EEPROM_REGION_LENGTH__+0x10>
 422:	ff ef       	ldi	r31, 0xFF	; 255
 424:	ef 1a       	sub	r14, r31
 426:	ff 0a       	sbc	r15, r31
 428:	e0 16       	cp	r14, r16
 42a:	f1 06       	cpc	r15, r17
 42c:	08 f4       	brcc	.+2      	; 0x430 <__EEPROM_REGION_LENGTH__+0x30>
 42e:	b0 cf       	rjmp	.-160    	; 0x390 <ejecutar_circulo_sinc+0x36>
 430:	2f e3       	ldi	r18, 0x3F	; 63
 432:	8d e0       	ldi	r24, 0x0D	; 13
 434:	93 e0       	ldi	r25, 0x03	; 3
 436:	21 50       	subi	r18, 0x01	; 1
 438:	80 40       	sbci	r24, 0x00	; 0
 43a:	90 40       	sbci	r25, 0x00	; 0
 43c:	e1 f7       	brne	.-8      	; 0x436 <__EEPROM_REGION_LENGTH__+0x36>
 43e:	00 c0       	rjmp	.+0      	; 0x440 <__EEPROM_REGION_LENGTH__+0x40>
 440:	00 00       	nop
 442:	0e 94 c5 03 	call	0x78a	; 0x78a <apagar>
 446:	cf 91       	pop	r28
 448:	1f 91       	pop	r17
 44a:	0f 91       	pop	r16
 44c:	ff 90       	pop	r15
 44e:	ef 90       	pop	r14
 450:	cf 90       	pop	r12
 452:	bf 90       	pop	r11
 454:	af 90       	pop	r10
 456:	8f 90       	pop	r8
 458:	7f 90       	pop	r7
 45a:	6f 90       	pop	r6
 45c:	08 95       	ret

Disassembly of section .text.peurbas:

000005cc <peurbas>:
 5cc:	90 e0       	ldi	r25, 0x00	; 0
 5ce:	fc 01       	movw	r30, r24
 5d0:	e3 56       	subi	r30, 0x63	; 99
 5d2:	f1 09       	sbc	r31, r1
 5d4:	e8 31       	cpi	r30, 0x18	; 24
 5d6:	f1 05       	cpc	r31, r1
 5d8:	20 f5       	brcc	.+72     	; 0x622 <peurbas+0x56>
 5da:	e1 5c       	subi	r30, 0xC1	; 193
 5dc:	ff 4f       	sbci	r31, 0xFF	; 255
 5de:	0c 94 bf 03 	jmp	0x77e	; 0x77e <__tablejump2__>
 5e2:	0e 94 c5 03 	call	0x78a	; 0x78a <apagar>
 5e6:	08 95       	ret
 5e8:	0e 94 ca 03 	call	0x794	; 0x794 <Subir_s>
 5ec:	08 95       	ret
 5ee:	0e 94 d4 03 	call	0x7a8	; 0x7a8 <Subir>
 5f2:	08 95       	ret
 5f4:	0e 94 cf 03 	call	0x79e	; 0x79e <Bajar>
 5f8:	08 95       	ret
 5fa:	0e 94 d9 03 	call	0x7b2	; 0x7b2 <Izquierda>
 5fe:	08 95       	ret
 600:	0e 94 de 03 	call	0x7bc	; 0x7bc <Derecha>
 604:	08 95       	ret
 606:	0e 94 e3 03 	call	0x7c6	; 0x7c6 <AbajoIzquierda>
 60a:	08 95       	ret
 60c:	0e 94 e8 03 	call	0x7d0	; 0x7d0 <AbajoDerecha>
 610:	08 95       	ret
 612:	0e 94 ed 03 	call	0x7da	; 0x7da <ArribaIzquierda>
 616:	08 95       	ret
 618:	0e 94 f2 03 	call	0x7e4	; 0x7e4 <ArribaDerecha>
 61c:	08 95       	ret
 61e:	0e 94 90 03 	call	0x720	; 0x720 <centrar>
 622:	08 95       	ret

Disassembly of section .text.__vector_13:

0000069e <__vector_13>:
 69e:	1f 92       	push	r1
 6a0:	0f 92       	push	r0
 6a2:	0f b6       	in	r0, 0x3f	; 63
 6a4:	0f 92       	push	r0
 6a6:	11 24       	eor	r1, r1
 6a8:	8f 93       	push	r24
 6aa:	80 91 00 02 	lds	r24, 0x0200	; 0x800200 <_end>
 6ae:	8f 5f       	subi	r24, 0xFF	; 255
 6b0:	80 93 00 02 	sts	0x0200, r24	; 0x800200 <_end>
 6b4:	82 ec       	ldi	r24, 0xC2	; 194
 6b6:	80 93 85 00 	sts	0x0085, r24	; 0x800085 <__TEXT_REGION_LENGTH__+0x7f8085>
 6ba:	87 ef       	ldi	r24, 0xF7	; 247
 6bc:	80 93 84 00 	sts	0x0084, r24	; 0x800084 <__TEXT_REGION_LENGTH__+0x7f8084>
 6c0:	8f 91       	pop	r24
 6c2:	0f 90       	pop	r0
 6c4:	0f be       	out	0x3f, r0	; 63
 6c6:	0f 90       	pop	r0
 6c8:	1f 90       	pop	r1
 6ca:	18 95       	reti

Disassembly of section .text.appendSerial:

00000744 <appendSerial>:
 744:	e0 91 03 02 	lds	r30, 0x0203	; 0x800203 <serialWritePos>
 748:	f0 e0       	ldi	r31, 0x00	; 0
 74a:	e0 58       	subi	r30, 0x80	; 128
 74c:	fe 4f       	sbci	r31, 0xFE	; 254
 74e:	80 83       	st	Z, r24
 750:	80 91 03 02 	lds	r24, 0x0203	; 0x800203 <serialWritePos>
 754:	8f 5f       	subi	r24, 0xFF	; 255
 756:	80 93 03 02 	sts	0x0203, r24	; 0x800203 <serialWritePos>
 75a:	80 91 03 02 	lds	r24, 0x0203	; 0x800203 <serialWritePos>
 75e:	88 23       	and	r24, r24
 760:	14 f4       	brge	.+4      	; 0x766 <appendSerial+0x22>
 762:	10 92 03 02 	sts	0x0203, r1	; 0x800203 <serialWritePos>
 766:	08 95       	ret

Disassembly of section .text.serialWrite:

000004e6 <serialWrite>:
 4e6:	cf 92       	push	r12
 4e8:	df 92       	push	r13
 4ea:	ef 92       	push	r14
 4ec:	0f 93       	push	r16
 4ee:	1f 93       	push	r17
 4f0:	cf 93       	push	r28
 4f2:	6b 01       	movw	r12, r22
 4f4:	e8 2e       	mov	r14, r24
 4f6:	c0 e0       	ldi	r28, 0x00	; 0
 4f8:	1f c0       	rjmp	.+62     	; 0x538 <serialWrite+0x52>
 4fa:	80 91 03 02 	lds	r24, 0x0203	; 0x800203 <serialWritePos>
 4fe:	90 e0       	ldi	r25, 0x00	; 0
 500:	4e 2d       	mov	r20, r14
 502:	96 01       	movw	r18, r12
 504:	2c 0f       	add	r18, r28
 506:	31 1d       	adc	r19, r1
 508:	41 1d       	adc	r20, r1
 50a:	f9 01       	movw	r30, r18
 50c:	24 91       	lpm	r18, Z
 50e:	47 fd       	sbrc	r20, 7
 510:	20 81       	ld	r18, Z
 512:	fc 01       	movw	r30, r24
 514:	e0 58       	subi	r30, 0x80	; 128
 516:	fe 4f       	sbci	r31, 0xFE	; 254
 518:	20 83       	st	Z, r18
 51a:	80 91 03 02 	lds	r24, 0x0203	; 0x800203 <serialWritePos>
 51e:	90 e0       	ldi	r25, 0x00	; 0
 520:	01 96       	adiw	r24, 0x01	; 1
 522:	8f 77       	andi	r24, 0x7F	; 127
 524:	90 78       	andi	r25, 0x80	; 128
 526:	99 23       	and	r25, r25
 528:	24 f4       	brge	.+8      	; 0x532 <serialWrite+0x4c>
 52a:	01 97       	sbiw	r24, 0x01	; 1
 52c:	80 68       	ori	r24, 0x80	; 128
 52e:	9f 6f       	ori	r25, 0xFF	; 255
 530:	01 96       	adiw	r24, 0x01	; 1
 532:	80 93 03 02 	sts	0x0203, r24	; 0x800203 <serialWritePos>
 536:	cf 5f       	subi	r28, 0xFF	; 255
 538:	0c 2f       	mov	r16, r28
 53a:	10 e0       	ldi	r17, 0x00	; 0
 53c:	8e 2d       	mov	r24, r14
 53e:	b6 01       	movw	r22, r12
 540:	0e 94 66 03 	call	0x6cc	; 0x6cc <strlen>
 544:	99 27       	eor	r25, r25
 546:	08 17       	cp	r16, r24
 548:	19 07       	cpc	r17, r25
 54a:	bc f2       	brlt	.-82     	; 0x4fa <serialWrite+0x14>
 54c:	e1 ec       	ldi	r30, 0xC1	; 193
 54e:	f0 e0       	ldi	r31, 0x00	; 0
 550:	80 81       	ld	r24, Z
 552:	80 62       	ori	r24, 0x20	; 32
 554:	80 83       	st	Z, r24
 556:	cf 91       	pop	r28
 558:	1f 91       	pop	r17
 55a:	0f 91       	pop	r16
 55c:	ef 90       	pop	r14
 55e:	df 90       	pop	r13
 560:	cf 90       	pop	r12
 562:	08 95       	ret

Disassembly of section .text.__vector_19:

00000564 <__vector_19>:
 564:	1f 92       	push	r1
 566:	0f 92       	push	r0
 568:	0f b6       	in	r0, 0x3f	; 63
 56a:	0f 92       	push	r0
 56c:	11 24       	eor	r1, r1
 56e:	8f 93       	push	r24
 570:	9f 93       	push	r25
 572:	ef 93       	push	r30
 574:	ff 93       	push	r31
 576:	90 91 04 02 	lds	r25, 0x0204	; 0x800204 <serialReadPos>
 57a:	80 91 03 02 	lds	r24, 0x0203	; 0x800203 <serialWritePos>
 57e:	98 17       	cp	r25, r24
 580:	b9 f0       	breq	.+46     	; 0x5b0 <__vector_19+0x4c>
 582:	e0 91 04 02 	lds	r30, 0x0204	; 0x800204 <serialReadPos>
 586:	f0 e0       	ldi	r31, 0x00	; 0
 588:	e0 58       	subi	r30, 0x80	; 128
 58a:	fe 4f       	sbci	r31, 0xFE	; 254
 58c:	80 81       	ld	r24, Z
 58e:	80 93 c6 00 	sts	0x00C6, r24	; 0x8000c6 <__TEXT_REGION_LENGTH__+0x7f80c6>
 592:	80 91 04 02 	lds	r24, 0x0204	; 0x800204 <serialReadPos>
 596:	90 e0       	ldi	r25, 0x00	; 0
 598:	01 96       	adiw	r24, 0x01	; 1
 59a:	8f 77       	andi	r24, 0x7F	; 127
 59c:	90 78       	andi	r25, 0x80	; 128
 59e:	99 23       	and	r25, r25
 5a0:	24 f4       	brge	.+8      	; 0x5aa <__vector_19+0x46>
 5a2:	01 97       	sbiw	r24, 0x01	; 1
 5a4:	80 68       	ori	r24, 0x80	; 128
 5a6:	9f 6f       	ori	r25, 0xFF	; 255
 5a8:	01 96       	adiw	r24, 0x01	; 1
 5aa:	80 93 04 02 	sts	0x0204, r24	; 0x800204 <serialReadPos>
 5ae:	05 c0       	rjmp	.+10     	; 0x5ba <__vector_19+0x56>
 5b0:	e1 ec       	ldi	r30, 0xC1	; 193
 5b2:	f0 e0       	ldi	r31, 0x00	; 0
 5b4:	80 81       	ld	r24, Z
 5b6:	8f 7d       	andi	r24, 0xDF	; 223
 5b8:	80 83       	st	Z, r24
 5ba:	ff 91       	pop	r31
 5bc:	ef 91       	pop	r30
 5be:	9f 91       	pop	r25
 5c0:	8f 91       	pop	r24
 5c2:	0f 90       	pop	r0
 5c4:	0f be       	out	0x3f, r0	; 63
 5c6:	0f 90       	pop	r0
 5c8:	1f 90       	pop	r1
 5ca:	18 95       	reti

Disassembly of section .text.Chardos:

0000066a <Chardos>:
 66a:	90 91 02 02 	lds	r25, 0x0202	; 0x800202 <rxReadPos>
 66e:	80 91 01 02 	lds	r24, 0x0201	; 0x800201 <rxWritePos>
 672:	98 17       	cp	r25, r24
 674:	91 f0       	breq	.+36     	; 0x69a <Chardos+0x30>
 676:	e0 91 02 02 	lds	r30, 0x0202	; 0x800202 <rxReadPos>
 67a:	f0 e0       	ldi	r31, 0x00	; 0
 67c:	e0 50       	subi	r30, 0x00	; 0
 67e:	ff 4f       	sbci	r31, 0xFF	; 255
 680:	80 81       	ld	r24, Z
 682:	90 91 02 02 	lds	r25, 0x0202	; 0x800202 <rxReadPos>
 686:	9f 5f       	subi	r25, 0xFF	; 255
 688:	90 93 02 02 	sts	0x0202, r25	; 0x800202 <rxReadPos>
 68c:	90 91 02 02 	lds	r25, 0x0202	; 0x800202 <rxReadPos>
 690:	99 23       	and	r25, r25
 692:	24 f4       	brge	.+8      	; 0x69c <Chardos+0x32>
 694:	10 92 02 02 	sts	0x0202, r1	; 0x800202 <rxReadPos>
 698:	08 95       	ret
 69a:	80 e0       	ldi	r24, 0x00	; 0
 69c:	08 95       	ret

Disassembly of section .text.main:

0000045e <main>:
 45e:	10 92 c5 00 	sts	0x00C5, r1	; 0x8000c5 <__TEXT_REGION_LENGTH__+0x7f80c5>
 462:	87 e6       	ldi	r24, 0x67	; 103
 464:	80 93 c4 00 	sts	0x00C4, r24	; 0x8000c4 <__TEXT_REGION_LENGTH__+0x7f80c4>
 468:	0e 94 7c 03 	call	0x6f8	; 0x6f8 <timer1_init_1ms>
 46c:	88 e9       	ldi	r24, 0x98	; 152
 46e:	80 93 c1 00 	sts	0x00C1, r24	; 0x8000c1 <__TEXT_REGION_LENGTH__+0x7f80c1>
 472:	86 e0       	ldi	r24, 0x06	; 6
 474:	80 93 c2 00 	sts	0x00C2, r24	; 0x8000c2 <__TEXT_REGION_LENGTH__+0x7f80c2>
 478:	78 94       	sei
 47a:	84 b1       	in	r24, 0x04	; 4
 47c:	81 60       	ori	r24, 0x01	; 1
 47e:	84 b9       	out	0x04, r24	; 4
 480:	8e ef       	ldi	r24, 0xFE	; 254
 482:	8a b9       	out	0x0a, r24	; 10
 484:	6c e1       	ldi	r22, 0x1C	; 28
 486:	73 e0       	ldi	r23, 0x03	; 3
 488:	80 e0       	ldi	r24, 0x00	; 0
 48a:	0e 94 73 02 	call	0x4e6	; 0x4e6 <serialWrite>
 48e:	6e e3       	ldi	r22, 0x3E	; 62
 490:	73 e0       	ldi	r23, 0x03	; 3
 492:	80 e0       	ldi	r24, 0x00	; 0
 494:	0e 94 73 02 	call	0x4e6	; 0x4e6 <serialWrite>
 498:	81 ee       	ldi	r24, 0xE1	; 225
 49a:	94 e0       	ldi	r25, 0x04	; 4
 49c:	01 97       	sbiw	r24, 0x01	; 1
 49e:	f1 f7       	brne	.-4      	; 0x49c <main+0x3e>
 4a0:	00 c0       	rjmp	.+0      	; 0x4a2 <main+0x44>
 4a2:	00 00       	nop
 4a4:	0e 94 35 03 	call	0x66a	; 0x66a <Chardos>
 4a8:	c8 2f       	mov	r28, r24
 4aa:	88 23       	and	r24, r24
 4ac:	59 f0       	breq	.+22     	; 0x4c4 <main+0x66>
 4ae:	6d e4       	ldi	r22, 0x4D	; 77
 4b0:	73 e0       	ldi	r23, 0x03	; 3
 4b2:	80 e0       	ldi	r24, 0x00	; 0
 4b4:	0e 94 73 02 	call	0x4e6	; 0x4e6 <serialWrite>
 4b8:	8c 2f       	mov	r24, r28
 4ba:	0e 94 a2 03 	call	0x744	; 0x744 <appendSerial>
 4be:	8a e0       	ldi	r24, 0x0A	; 10
 4c0:	0e 94 a2 03 	call	0x744	; 0x744 <appendSerial>
 4c4:	c1 33       	cpi	r28, 0x31	; 49
 4c6:	59 f4       	brne	.+22     	; 0x4de <main+0x80>
 4c8:	0a ec       	ldi	r16, 0xCA	; 202
 4ca:	10 e0       	ldi	r17, 0x00	; 0
 4cc:	28 e0       	ldi	r18, 0x08	; 8
 4ce:	31 e0       	ldi	r19, 0x01	; 1
 4d0:	40 e0       	ldi	r20, 0x00	; 0
 4d2:	62 e5       	ldi	r22, 0x52	; 82
 4d4:	72 e0       	ldi	r23, 0x02	; 2
 4d6:	80 e0       	ldi	r24, 0x00	; 0
 4d8:	0e 94 ad 01 	call	0x35a	; 0x35a <ejecutar_circulo_sinc>
 4dc:	e3 cf       	rjmp	.-58     	; 0x4a4 <main+0x46>
 4de:	8c 2f       	mov	r24, r28
 4e0:	0e 94 e6 02 	call	0x5cc	; 0x5cc <peurbas>
 4e4:	df cf       	rjmp	.-66     	; 0x4a4 <main+0x46>

Disassembly of section .text.__vector_18:

00000624 <__vector_18>:
 624:	1f 92       	push	r1
 626:	0f 92       	push	r0
 628:	0f b6       	in	r0, 0x3f	; 63
 62a:	0f 92       	push	r0
 62c:	11 24       	eor	r1, r1
 62e:	8f 93       	push	r24
 630:	ef 93       	push	r30
 632:	ff 93       	push	r31
 634:	e0 91 01 02 	lds	r30, 0x0201	; 0x800201 <rxWritePos>
 638:	f0 e0       	ldi	r31, 0x00	; 0
 63a:	80 91 c6 00 	lds	r24, 0x00C6	; 0x8000c6 <__TEXT_REGION_LENGTH__+0x7f80c6>
 63e:	e0 50       	subi	r30, 0x00	; 0
 640:	ff 4f       	sbci	r31, 0xFF	; 255
 642:	80 83       	st	Z, r24
 644:	80 91 01 02 	lds	r24, 0x0201	; 0x800201 <rxWritePos>
 648:	8f 5f       	subi	r24, 0xFF	; 255
 64a:	80 93 01 02 	sts	0x0201, r24	; 0x800201 <rxWritePos>
 64e:	80 91 01 02 	lds	r24, 0x0201	; 0x800201 <rxWritePos>
 652:	88 23       	and	r24, r24
 654:	14 f4       	brge	.+4      	; 0x65a <__vector_18+0x36>
 656:	10 92 01 02 	sts	0x0201, r1	; 0x800201 <rxWritePos>
 65a:	ff 91       	pop	r31
 65c:	ef 91       	pop	r30
 65e:	8f 91       	pop	r24
 660:	0f 90       	pop	r0
 662:	0f be       	out	0x3f, r0	; 63
 664:	0f 90       	pop	r0
 666:	1f 90       	pop	r1
 668:	18 95       	reti

Disassembly of section .text.libgcc:

0000077e <__tablejump2__>:
 77e:	ee 0f       	add	r30, r30
 780:	ff 1f       	adc	r31, r31
 782:	05 90       	lpm	r0, Z+
 784:	f4 91       	lpm	r31, Z
 786:	e0 2d       	mov	r30, r0
 788:	09 94       	ijmp

Disassembly of section .text.__dummy_fini:

000007f6 <_fini>:
 7f6:	08 95       	ret

Disassembly of section .text.__dummy_funcs_on_exit:

000007f8 <__funcs_on_exit>:
 7f8:	08 95       	ret

Disassembly of section .text.__dummy_simulator_exit:

000007fa <__simulator_exit>:
 7fa:	08 95       	ret

Disassembly of section .text.exit:

00000768 <exit>:
 768:	ec 01       	movw	r28, r24
 76a:	0e 94 fc 03 	call	0x7f8	; 0x7f8 <__funcs_on_exit>
 76e:	0e 94 fb 03 	call	0x7f6	; 0x7f6 <_fini>
 772:	ce 01       	movw	r24, r28
 774:	0e 94 fd 03 	call	0x7fa	; 0x7fa <__simulator_exit>
 778:	ce 01       	movw	r24, r28
 77a:	0e 94 f9 03 	call	0x7f2	; 0x7f2 <_Exit>

Disassembly of section .text.strlen:

000006cc <strlen>:
 6cc:	cf 92       	push	r12
 6ce:	df 92       	push	r13
 6d0:	ef 92       	push	r14
 6d2:	6b 01       	movw	r12, r22
 6d4:	e8 2e       	mov	r14, r24
 6d6:	a8 2f       	mov	r26, r24
 6d8:	cb 01       	movw	r24, r22
 6da:	fc 01       	movw	r30, r24
 6dc:	24 91       	lpm	r18, Z
 6de:	a7 fd       	sbrc	r26, 7
 6e0:	20 81       	ld	r18, Z
 6e2:	22 23       	and	r18, r18
 6e4:	19 f0       	breq	.+6      	; 0x6ec <strlen+0x20>
 6e6:	01 96       	adiw	r24, 0x01	; 1
 6e8:	a1 1d       	adc	r26, r1
 6ea:	f7 cf       	rjmp	.-18     	; 0x6da <strlen+0xe>
 6ec:	8c 19       	sub	r24, r12
 6ee:	9d 09       	sbc	r25, r13
 6f0:	ef 90       	pop	r14
 6f2:	df 90       	pop	r13
 6f4:	cf 90       	pop	r12
 6f6:	08 95       	ret

Disassembly of section .text._Exit:

000007f2 <_Exit>:
 7f2:	0e 94 82 00 	call	0x104	; 0x104 <_exit>
